
main:     file format elf32-littleriscv
main
architecture: riscv:rv32, flags 0x00000112:
EXEC_P, HAS_SYMS, D_PAGED
start address 0x00000000

Program Header:
    LOAD off    0x00001000 vaddr 0x00000000 paddr 0x00000000 align 2**12
         filesz 0x00001010 memsz 0x00001010 flags r-x
    LOAD off    0x00000000 vaddr 0x00020000 paddr 0x00020000 align 2**12
         filesz 0x00000000 memsz 0x00000008 flags rw-
    LOAD off    0x00003000 vaddr 0x00010000 paddr 0x20000000 align 2**12
         filesz 0x0000048c memsz 0x0000048c flags r-x
    LOAD off    0x00000000 vaddr 0x20400000 paddr 0x20400000 align 2**12
         filesz 0x00000000 memsz 0x00000010 flags rw-
    LOAD off    0x00004008 vaddr 0x00020008 paddr 0x20400010 align 2**12
         filesz 0x00000028 memsz 0x00000028 flags rw-
    LOAD off    0x00005000 vaddr 0x50000000 paddr 0x20400038 align 2**12
         filesz 0x00003000 memsz 0x00003000 flags rw-
    LOAD off    0x00008000 vaddr 0x70000000 paddr 0x20403038 align 2**12
         filesz 0x000002d0 memsz 0x000002d0 flags rw-
    LOAD off    0x00009000 vaddr 0x71000000 paddr 0x20403308 align 2**12
         filesz 0x000000f0 memsz 0x000000f0 flags rw-
    LOAD off    0x0000a000 vaddr 0x72000000 paddr 0x204033f8 align 2**12
         filesz 0x00000010 memsz 0x00000010 flags rw-
    LOAD off    0x0000a2d0 vaddr 0x700002d0 paddr 0x20403408 align 2**12
         filesz 0x0000039c memsz 0x0000039c flags rw-
    LOAD off    0x0000b0f0 vaddr 0x710000f0 paddr 0x204037a4 align 2**12
         filesz 0x00000084 memsz 0x00000084 flags rw-
    LOAD off    0x0000c010 vaddr 0x72000010 paddr 0x20403828 align 2**12
         filesz 0x00000010 memsz 0x00000010 flags rw-
    LOAD off    0x0000c66c vaddr 0x7000066c paddr 0x20403838 align 2**12
         filesz 0x00000140 memsz 0x00000140 flags rw-
    LOAD off    0x0000d174 vaddr 0x71000174 paddr 0x20403978 align 2**12
         filesz 0x00000050 memsz 0x00000050 flags rw-
    LOAD off    0x0000e020 vaddr 0x72000020 paddr 0x204039c8 align 2**12
         filesz 0x00000010 memsz 0x00000010 flags rw-
    LOAD off    0x0000f000 vaddr 0x50003000 paddr 0x204039d8 align 2**12
         filesz 0x00000050 memsz 0x00000050 flags rw-
    LOAD off    0x00010030 vaddr 0x72000030 paddr 0x20403a28 align 2**12
         filesz 0x00000010 memsz 0x00000010 flags rw-
    LOAD off    0x00011030 vaddr 0x00020030 paddr 0x20403a38 align 2**12
         filesz 0x00000000 memsz 0x00001000 flags rw-

Sections:
Idx Name          Size      VMA       LMA       File off  Algn
  0 .text0        00001010  00000000  00000000  00001000  2**2
                  CONTENTS, ALLOC, LOAD, READONLY, CODE
  1 .text1        0000048c  00010000  20000000  00003000  2**2
                  CONTENTS, ALLOC, LOAD, READONLY, CODE
  2 _test         00000010  20400000  20400000  00004000  2**0
                  ALLOC
  3 .sbss         00000008  00020000  00020000  00003000  2**2
                  ALLOC
  4 .sdata        00000028  00020008  20400010  00004008  2**2
                  CONTENTS, ALLOC, LOAD, DATA
  5 .in8_conv0_dat 00003000  50000000  20400038  00005000  2**0
                  CONTENTS, ALLOC, LOAD, DATA
  6 .w2_conv0_dat 000002d0  70000000  20403038  00008000  2**0
                  CONTENTS, ALLOC, LOAD, DATA
  7 .bias_conv0_dat 000000f0  71000000  20403308  00009000  2**0
                  CONTENTS, ALLOC, LOAD, DATA
  8 .param_conv0_dat 00000010  72000000  204033f8  0000a000  2**0
                  CONTENTS, ALLOC, LOAD, DATA
  9 .w2_conv1_dat 0000039c  700002d0  20403408  0000a2d0  2**0
                  CONTENTS, ALLOC, LOAD, DATA
 10 .bias_conv1_dat 00000084  710000f0  204037a4  0000b0f0  2**0
                  CONTENTS, ALLOC, LOAD, DATA
 11 .param_conv1_dat 00000010  72000010  20403828  0000c010  2**0
                  CONTENTS, ALLOC, LOAD, DATA
 12 .w2_conv2_dat 00000140  7000066c  20403838  0000c66c  2**0
                  CONTENTS, ALLOC, LOAD, DATA
 13 .bias_conv2_dat 00000050  71000174  20403978  0000d174  2**0
                  CONTENTS, ALLOC, LOAD, DATA
 14 .param_conv2_dat 00000010  72000020  204039c8  0000e020  2**0
                  CONTENTS, ALLOC, LOAD, DATA
 15 .out8_pool0_dat 00000050  50003000  204039d8  0000f000  2**0
                  CONTENTS, ALLOC, LOAD, DATA
 16 .param_pool0_dat 00000010  72000030  20403a28  00010030  2**0
                  CONTENTS, ALLOC, LOAD, DATA
 17 .data1        00000000  00020030  20403a38  00011030  2**0
                  CONTENTS, ALLOC, LOAD, DATA
 18 .bss          00000000  00020030  20400038  00011030  2**0
                  ALLOC
 19 .stack        00001000  00020030  20403a38  00011030  2**0
                  ALLOC
 20 .comment      00000012  00000000  00000000  00011030  2**0
                  CONTENTS, READONLY
 21 .riscv.attributes 00000020  00000000  00000000  00011042  2**0
                  CONTENTS, READONLY
SYMBOL TABLE:
00000000 l    d  .text0	00000000 .text0
00010000 l    d  .text1	00000000 .text1
20400000 l    d  _test	00000000 _test
00020000 l    d  .sbss	00000000 .sbss
00020008 l    d  .sdata	00000000 .sdata
50000000 l    d  .in8_conv0_dat	00000000 .in8_conv0_dat
70000000 l    d  .w2_conv0_dat	00000000 .w2_conv0_dat
71000000 l    d  .bias_conv0_dat	00000000 .bias_conv0_dat
72000000 l    d  .param_conv0_dat	00000000 .param_conv0_dat
700002d0 l    d  .w2_conv1_dat	00000000 .w2_conv1_dat
710000f0 l    d  .bias_conv1_dat	00000000 .bias_conv1_dat
72000010 l    d  .param_conv1_dat	00000000 .param_conv1_dat
7000066c l    d  .w2_conv2_dat	00000000 .w2_conv2_dat
71000174 l    d  .bias_conv2_dat	00000000 .bias_conv2_dat
72000020 l    d  .param_conv2_dat	00000000 .param_conv2_dat
50003000 l    d  .out8_pool0_dat	00000000 .out8_pool0_dat
72000030 l    d  .param_pool0_dat	00000000 .param_pool0_dat
00020030 l    d  .data1	00000000 .data1
00020030 l    d  .bss	00000000 .bss
00020030 l    d  .stack	00000000 .stack
00000000 l    d  .comment	00000000 .comment
00000000 l    d  .riscv.attributes	00000000 .riscv.attributes
00000000 l    df *ABS*	00000000 setup.o
00000084 l       .text0	00000000 init_bss
00000108 l       .text0	00000000 fill_block
0000009c l       .text0	00000000 init_sbss
000000b4 l       .text0	00000000 write_stack_pattern
000000cc l       .text0	00000000 init_stack
000000d4 l       .text0	00000000 write_test_pattern
000000ec l       .text0	00000000 SystemInit
000000f4 l       .text0	00000000 SystemExit
00000104 l       .text0	00000000 dead_loop
00000118 l       .text0	00000000 fb_end
00000000 l    df *ABS*	00000000 boot.c
00000000 l    df *ABS*	00000000 main.c
000000f0 g       *ABS*	00000000 _binary_Bias32_conv0_dat_size
72000010 g       .param_conv0_dat	00000000 _binary_param_conv0_dat_end
00000010 g       *ABS*	00000000 _binary_param_conv2_dat_size
00020000 g     O .sbss	00000004 copy_addr
20400000 g       _test	00000000 _test_start
20403a38 g       *ABS*	00000000 __data_paddr_start
72000030 g       .param_pool0_dat	00000000 __param_pool0_start
7000066c g       .w2_conv1_dat	00000000 _binary_W2_conv1_dat_end
00020020 g     O .sdata	00000004 epu_param_buff_addr
204037a4 g       *ABS*	00000000 __bias_conv1_data_in_dram_start
00020004 g     O .sbss	00000004 copy_count
700007ac g       .w2_conv2_dat	00000000 __w2_conv2_end
00020000 g       .sbss	00000000 __sbss_start
00020808 g       .sdata	00000000 _gp
20400010 g       _test	00000000 _test_end
0002002c g     O .sdata	00000004 epu_w8_u_addr
72000010 g       .param_conv0_dat	00000000 __param_conv0_end
72000020 g       .param_conv2_dat	00000000 __param_conv2_start
72000000 g       .param_conv0_dat	00000000 __param_conv0_start
00010000 g       .text1	00000000 _imem_start
72000030 g       .param_conv2_dat	00000000 _binary_param_conv2_dat_end
204039d8 g       *ABS*	00000000 __out8_pool0_data_in_dram_start
00000050 g       *ABS*	00000000 _binary_Out8_pool0_dat_size
20403308 g       *ABS*	00000000 __bias_conv0_data_in_dram_start
00000010 g       *ABS*	00000000 _TEST_SIZE
20400010 g       *ABS*	00000000 __sdata_paddr_start
00020008 g       .sdata	00000000 __sdata_start
700002d0 g       .w2_conv0_dat	00000000 _binary_W2_conv0_dat_end
0001048c g       .text1	00000000 __rodata_end
0000039c g       *ABS*	00000000 _binary_W2_conv1_dat_size
20403408 g       *ABS*	00000000 __w2_conv1_data_in_dram_start
00000084 g       *ABS*	00000000 _binary_Bias32_conv1_dat_size
50003000 g       .out8_pool0_dat	00000000 _binary_Out8_pool0_dat_start
00000140 g       *ABS*	00000000 _binary_W2_conv2_dat_size
710000f0 g       .bias_conv0_dat	00000000 __bias_conv0_end
71000174 g       .bias_conv1_dat	00000000 _binary_Bias32_conv1_dat_end
0000018c g     F .text0	000000d0 boot
71000000 g       .bias_conv0_dat	00000000 _binary_Bias32_conv0_dat_start
710000f0 g       .bias_conv0_dat	00000000 _binary_Bias32_conv0_dat_end
20403828 g       *ABS*	00000000 __param_conv1_data_in_dram_start
72000000 g       .param_conv0_dat	00000000 _binary_param_conv0_dat_start
00020030 g       .bss	00000000 __bss_end
72000030 g       .param_conv2_dat	00000000 __param_conv2_end
700007ac g       .w2_conv2_dat	00000000 _binary_W2_conv2_dat_end
710001c4 g       .bias_conv2_dat	00000000 __bias_conv2_end
00020008 g       .sbss	00000000 __sbss_end
72000040 g       .param_pool0_dat	00000000 __param_pool0_end
71000174 g       .bias_conv2_dat	00000000 _binary_Bias32_conv2_dat_start
70000000 g       .w2_conv0_dat	00000000 __w2_conv0_start
72000010 g       .param_conv1_dat	00000000 _binary_param_conv1_dat_start
70000000 g       .w2_conv0_dat	00000000 _binary_W2_conv0_dat_start
7000066c g       .w2_conv1_dat	00000000 __w2_conv1_end
72000020 g       .param_conv1_dat	00000000 _binary_param_conv1_dat_end
72000040 g       .param_pool0_dat	00000000 _binary_param_pool0_dat_end
00000010 g       *ABS*	00000000 _binary_param_conv1_dat_size
00000000 g       .text0	00000000 _start
204039c8 g       *ABS*	00000000 __param_conv2_data_in_dram_start
71000174 g       .bias_conv2_dat	00000000 __bias_conv2_start
0001048c g       .text1	00000000 __rodata_start
000002d0 g       *ABS*	00000000 _binary_W2_conv0_dat_size
00001000 g       .text0	00000000 dmaisr_entry
00020030 g       .data1	00000000 __data_end
00020014 g     O .sdata	00000004 epu_out_buff_addr
00020024 g     O .sdata	00000004 epu_ctrl_addr
20000000 g       .text1	00000000 _dram_i_start
00010000 g     F .text1	00000074 cpu_move
00000050 g       *ABS*	00000000 _binary_Bias32_conv2_dat_size
204033f8 g       *ABS*	00000000 __param_conv0_data_in_dram_start
00000010 g       *ABS*	00000000 _binary_param_pool0_dat_size
72000020 g       .param_conv1_dat	00000000 __param_conv1_end
50000000 g       .in8_conv0_dat	00000000 _binary_In8_conv0_dat_start
00020030 g       .bss	00000000 __bss_start
00001000 g       *ABS*	00000000 _STACK_SIZE
0002fffc g       .stack	00000000 _sim_end
00010074 g     F .text1	00000418 main
71000000 g       .bias_conv0_dat	00000000 __bias_conv0_start
00020018 g     O .sdata	00000004 epu_weight_buff_addr
20403038 g       *ABS*	00000000 __w2_conv0_data_in_dram_start
00020030 g       .stack	00000000 _stack_end
20403a28 g       *ABS*	00000000 __param_pool0_data_in_dram_start
20403978 g       *ABS*	00000000 __bias_conv2_data_in_dram_start
00020030 g       .sdata	00000000 __sdata_end
20403838 g       *ABS*	00000000 __w2_conv2_data_in_dram_start
00020010 g     O .sdata	00000004 epu_in_buff_addr
00003000 g       *ABS*	00000000 _binary_In8_conv0_dat_size
0002000c g     O .sdata	00000004 sensor_addr
2000048c g       .text1	00000000 _dram_i_end
0002001c g     O .sdata	00000004 epu_bias_buff_addr
50003050 g       .out8_pool0_dat	00000000 _binary_Out8_pool0_dat_end
710000f0 g       .bias_conv1_dat	00000000 _binary_Bias32_conv1_dat_start
50003000 g       .in8_conv0_dat	00000000 __in8_conv0_end
00000010 g       *ABS*	00000000 _binary_param_conv0_dat_size
710000f0 g       .bias_conv1_dat	00000000 __bias_conv1_start
00020008 g     O .sdata	00000004 sensor_size
50000000 g       .in8_conv0_dat	00000000 __in8_conv0_start
00021030 g       .stack	00000000 __stack
00030000 g       .stack	00000000 _end
7000066c g       .w2_conv2_dat	00000000 __w2_conv2_start
71000174 g       .bias_conv1_dat	00000000 __bias_conv1_end
72000010 g       .param_conv1_dat	00000000 __param_conv1_start
00020028 g     O .sdata	00000004 epu_w8_l_addr
7000066c g       .w2_conv2_dat	00000000 _binary_W2_conv2_dat_start
20400038 g       *ABS*	00000000 __in8_conv0_data_in_dram_start
72000020 g       .param_conv2_dat	00000000 _binary_param_conv2_dat_start
0000011c g     F .text0	00000070 dma_move
00021030 g       .stack	00000000 _stack
700002d0 g       .w2_conv1_dat	00000000 __w2_conv1_start
700002d0 g       .w2_conv1_dat	00000000 _binary_W2_conv1_dat_start
50003000 g       .in8_conv0_dat	00000000 _binary_In8_conv0_dat_end
00020030 g       .data1	00000000 __data_start
700002d0 g       .w2_conv0_dat	00000000 __w2_conv0_end
50003050 g       .out8_pool0_dat	00000000 __out8_pool0_end
72000030 g       .param_pool0_dat	00000000 _binary_param_pool0_dat_start
50003000 g       .out8_pool0_dat	00000000 __out8_pool0_start
710001c4 g       .bias_conv2_dat	00000000 _binary_Bias32_conv2_dat_end


Contents of section .text0:
 0000 93000000 13010000 93010000 13020000  ................
 0010 93020000 13030000 93030000 13040000  ................
 0020 93040000 13050000 93050000 13060000  ................
 0030 93060000 13070000 93070000 13080000  ................
 0040 93080000 13090000 93090000 130a0000  ................
 0050 930a0000 130b0000 930b0000 130c0000  ................
 0060 930c0000 130d0000 930d0000 130e0000  ................
 0070 930e0000 130f0000 930f0000 97010200  ................
 0080 9381c178 17050200 1305c5fa 97050200  ...x............
 0090 938505fa 13060000 ef000007 17050200  ................
 00a0 130545f6 97050200 938505f6 13060000  ..E.............
 00b0 ef008005 17050200 1305c5f7 97150200  ................
 00c0 938505f7 13060000 ef000004 17110200  ................
 00d0 130141f6 17054020 1305c5f2 97054020  ..A...@ ......@ 
 00e0 938505f3 13060000 ef000002 ef00000a  ................
 00f0 eff05078 97020300 938282f0 1303f0ff  ..Px............
 0100 23a06200 6f000000 63e8a500 2320c500  #.b.o...c...# ..
 0110 13054500 6ff05fff 67800000 130101fd  ..E.o._.g.......
 0120 23268102 13040103 232ea4fc 232cb4fc  #&......#...#,..
 0130 232ac4fc b7070040 2326f4fe 0327c4fd  #*.....@#&...'..
 0140 8327c4fe 23a0e700 8327c4fe 93874700  .'..#....'....G.
 0150 032784fd 23a0e700 8327c4fe 93878700  .'..#....'......
 0160 032744fd 23a0e700 8327c4fe 9387c700  .'D.#....'......
 0170 13071000 23a0e700 73005010 13000000  ....#...s.P.....
 0180 0324c102 13010103 67800000 130101fe  .$......g.......
 0190 232e1100 232c8100 13040102 73600430  #...#,......s`.0
 01a0 b71f0000 938f0f80 73a04f30 b7070020  ........s.O0... 
 01b0 1387c748 b7070020 93870700 b307f740  ...H... .......@
 01c0 93d72740 2326f4fe 0326c4fe b7070100  ..'@#&...&......
 01d0 93850700 b7070020 13850700 eff01ff4  ....... ........
 01e0 b7070200 13870703 b7070200 93878700  ................
 01f0 b307f740 93d72740 2326f4fe 0326c4fe  ...@..'@#&...&..
 0200 b7070200 93858700 b7074020 13850701  ..........@ ....
 0210 eff0dff0 b7070200 13870703 b7070200  ................
 0220 93870703 b307f740 93d72740 2326f4fe  .......@..'@#&..
 0230 0326c4fe b7070200 93850703 b7474020  .&...........G@ 
 0240 138587a3 eff09fed 13000000 8320c101  ............. ..
 0250 03248101 13010102 67800000 00000000  .$......g.......
 0260 00000000 00000000 00000000 00000000  ................
 0270 00000000 00000000 00000000 00000000  ................
 0280 00000000 00000000 00000000 00000000  ................
 0290 00000000 00000000 00000000 00000000  ................
 02a0 00000000 00000000 00000000 00000000  ................
 02b0 00000000 00000000 00000000 00000000  ................
 02c0 00000000 00000000 00000000 00000000  ................
 02d0 00000000 00000000 00000000 00000000  ................
 02e0 00000000 00000000 00000000 00000000  ................
 02f0 00000000 00000000 00000000 00000000  ................
 0300 00000000 00000000 00000000 00000000  ................
 0310 00000000 00000000 00000000 00000000  ................
 0320 00000000 00000000 00000000 00000000  ................
 0330 00000000 00000000 00000000 00000000  ................
 0340 00000000 00000000 00000000 00000000  ................
 0350 00000000 00000000 00000000 00000000  ................
 0360 00000000 00000000 00000000 00000000  ................
 0370 00000000 00000000 00000000 00000000  ................
 0380 00000000 00000000 00000000 00000000  ................
 0390 00000000 00000000 00000000 00000000  ................
 03a0 00000000 00000000 00000000 00000000  ................
 03b0 00000000 00000000 00000000 00000000  ................
 03c0 00000000 00000000 00000000 00000000  ................
 03d0 00000000 00000000 00000000 00000000  ................
 03e0 00000000 00000000 00000000 00000000  ................
 03f0 00000000 00000000 00000000 00000000  ................
 0400 00000000 00000000 00000000 00000000  ................
 0410 00000000 00000000 00000000 00000000  ................
 0420 00000000 00000000 00000000 00000000  ................
 0430 00000000 00000000 00000000 00000000  ................
 0440 00000000 00000000 00000000 00000000  ................
 0450 00000000 00000000 00000000 00000000  ................
 0460 00000000 00000000 00000000 00000000  ................
 0470 00000000 00000000 00000000 00000000  ................
 0480 00000000 00000000 00000000 00000000  ................
 0490 00000000 00000000 00000000 00000000  ................
 04a0 00000000 00000000 00000000 00000000  ................
 04b0 00000000 00000000 00000000 00000000  ................
 04c0 00000000 00000000 00000000 00000000  ................
 04d0 00000000 00000000 00000000 00000000  ................
 04e0 00000000 00000000 00000000 00000000  ................
 04f0 00000000 00000000 00000000 00000000  ................
 0500 00000000 00000000 00000000 00000000  ................
 0510 00000000 00000000 00000000 00000000  ................
 0520 00000000 00000000 00000000 00000000  ................
 0530 00000000 00000000 00000000 00000000  ................
 0540 00000000 00000000 00000000 00000000  ................
 0550 00000000 00000000 00000000 00000000  ................
 0560 00000000 00000000 00000000 00000000  ................
 0570 00000000 00000000 00000000 00000000  ................
 0580 00000000 00000000 00000000 00000000  ................
 0590 00000000 00000000 00000000 00000000  ................
 05a0 00000000 00000000 00000000 00000000  ................
 05b0 00000000 00000000 00000000 00000000  ................
 05c0 00000000 00000000 00000000 00000000  ................
 05d0 00000000 00000000 00000000 00000000  ................
 05e0 00000000 00000000 00000000 00000000  ................
 05f0 00000000 00000000 00000000 00000000  ................
 0600 00000000 00000000 00000000 00000000  ................
 0610 00000000 00000000 00000000 00000000  ................
 0620 00000000 00000000 00000000 00000000  ................
 0630 00000000 00000000 00000000 00000000  ................
 0640 00000000 00000000 00000000 00000000  ................
 0650 00000000 00000000 00000000 00000000  ................
 0660 00000000 00000000 00000000 00000000  ................
 0670 00000000 00000000 00000000 00000000  ................
 0680 00000000 00000000 00000000 00000000  ................
 0690 00000000 00000000 00000000 00000000  ................
 06a0 00000000 00000000 00000000 00000000  ................
 06b0 00000000 00000000 00000000 00000000  ................
 06c0 00000000 00000000 00000000 00000000  ................
 06d0 00000000 00000000 00000000 00000000  ................
 06e0 00000000 00000000 00000000 00000000  ................
 06f0 00000000 00000000 00000000 00000000  ................
 0700 00000000 00000000 00000000 00000000  ................
 0710 00000000 00000000 00000000 00000000  ................
 0720 00000000 00000000 00000000 00000000  ................
 0730 00000000 00000000 00000000 00000000  ................
 0740 00000000 00000000 00000000 00000000  ................
 0750 00000000 00000000 00000000 00000000  ................
 0760 00000000 00000000 00000000 00000000  ................
 0770 00000000 00000000 00000000 00000000  ................
 0780 00000000 00000000 00000000 00000000  ................
 0790 00000000 00000000 00000000 00000000  ................
 07a0 00000000 00000000 00000000 00000000  ................
 07b0 00000000 00000000 00000000 00000000  ................
 07c0 00000000 00000000 00000000 00000000  ................
 07d0 00000000 00000000 00000000 00000000  ................
 07e0 00000000 00000000 00000000 00000000  ................
 07f0 00000000 00000000 00000000 00000000  ................
 0800 00000000 00000000 00000000 00000000  ................
 0810 00000000 00000000 00000000 00000000  ................
 0820 00000000 00000000 00000000 00000000  ................
 0830 00000000 00000000 00000000 00000000  ................
 0840 00000000 00000000 00000000 00000000  ................
 0850 00000000 00000000 00000000 00000000  ................
 0860 00000000 00000000 00000000 00000000  ................
 0870 00000000 00000000 00000000 00000000  ................
 0880 00000000 00000000 00000000 00000000  ................
 0890 00000000 00000000 00000000 00000000  ................
 08a0 00000000 00000000 00000000 00000000  ................
 08b0 00000000 00000000 00000000 00000000  ................
 08c0 00000000 00000000 00000000 00000000  ................
 08d0 00000000 00000000 00000000 00000000  ................
 08e0 00000000 00000000 00000000 00000000  ................
 08f0 00000000 00000000 00000000 00000000  ................
 0900 00000000 00000000 00000000 00000000  ................
 0910 00000000 00000000 00000000 00000000  ................
 0920 00000000 00000000 00000000 00000000  ................
 0930 00000000 00000000 00000000 00000000  ................
 0940 00000000 00000000 00000000 00000000  ................
 0950 00000000 00000000 00000000 00000000  ................
 0960 00000000 00000000 00000000 00000000  ................
 0970 00000000 00000000 00000000 00000000  ................
 0980 00000000 00000000 00000000 00000000  ................
 0990 00000000 00000000 00000000 00000000  ................
 09a0 00000000 00000000 00000000 00000000  ................
 09b0 00000000 00000000 00000000 00000000  ................
 09c0 00000000 00000000 00000000 00000000  ................
 09d0 00000000 00000000 00000000 00000000  ................
 09e0 00000000 00000000 00000000 00000000  ................
 09f0 00000000 00000000 00000000 00000000  ................
 0a00 00000000 00000000 00000000 00000000  ................
 0a10 00000000 00000000 00000000 00000000  ................
 0a20 00000000 00000000 00000000 00000000  ................
 0a30 00000000 00000000 00000000 00000000  ................
 0a40 00000000 00000000 00000000 00000000  ................
 0a50 00000000 00000000 00000000 00000000  ................
 0a60 00000000 00000000 00000000 00000000  ................
 0a70 00000000 00000000 00000000 00000000  ................
 0a80 00000000 00000000 00000000 00000000  ................
 0a90 00000000 00000000 00000000 00000000  ................
 0aa0 00000000 00000000 00000000 00000000  ................
 0ab0 00000000 00000000 00000000 00000000  ................
 0ac0 00000000 00000000 00000000 00000000  ................
 0ad0 00000000 00000000 00000000 00000000  ................
 0ae0 00000000 00000000 00000000 00000000  ................
 0af0 00000000 00000000 00000000 00000000  ................
 0b00 00000000 00000000 00000000 00000000  ................
 0b10 00000000 00000000 00000000 00000000  ................
 0b20 00000000 00000000 00000000 00000000  ................
 0b30 00000000 00000000 00000000 00000000  ................
 0b40 00000000 00000000 00000000 00000000  ................
 0b50 00000000 00000000 00000000 00000000  ................
 0b60 00000000 00000000 00000000 00000000  ................
 0b70 00000000 00000000 00000000 00000000  ................
 0b80 00000000 00000000 00000000 00000000  ................
 0b90 00000000 00000000 00000000 00000000  ................
 0ba0 00000000 00000000 00000000 00000000  ................
 0bb0 00000000 00000000 00000000 00000000  ................
 0bc0 00000000 00000000 00000000 00000000  ................
 0bd0 00000000 00000000 00000000 00000000  ................
 0be0 00000000 00000000 00000000 00000000  ................
 0bf0 00000000 00000000 00000000 00000000  ................
 0c00 00000000 00000000 00000000 00000000  ................
 0c10 00000000 00000000 00000000 00000000  ................
 0c20 00000000 00000000 00000000 00000000  ................
 0c30 00000000 00000000 00000000 00000000  ................
 0c40 00000000 00000000 00000000 00000000  ................
 0c50 00000000 00000000 00000000 00000000  ................
 0c60 00000000 00000000 00000000 00000000  ................
 0c70 00000000 00000000 00000000 00000000  ................
 0c80 00000000 00000000 00000000 00000000  ................
 0c90 00000000 00000000 00000000 00000000  ................
 0ca0 00000000 00000000 00000000 00000000  ................
 0cb0 00000000 00000000 00000000 00000000  ................
 0cc0 00000000 00000000 00000000 00000000  ................
 0cd0 00000000 00000000 00000000 00000000  ................
 0ce0 00000000 00000000 00000000 00000000  ................
 0cf0 00000000 00000000 00000000 00000000  ................
 0d00 00000000 00000000 00000000 00000000  ................
 0d10 00000000 00000000 00000000 00000000  ................
 0d20 00000000 00000000 00000000 00000000  ................
 0d30 00000000 00000000 00000000 00000000  ................
 0d40 00000000 00000000 00000000 00000000  ................
 0d50 00000000 00000000 00000000 00000000  ................
 0d60 00000000 00000000 00000000 00000000  ................
 0d70 00000000 00000000 00000000 00000000  ................
 0d80 00000000 00000000 00000000 00000000  ................
 0d90 00000000 00000000 00000000 00000000  ................
 0da0 00000000 00000000 00000000 00000000  ................
 0db0 00000000 00000000 00000000 00000000  ................
 0dc0 00000000 00000000 00000000 00000000  ................
 0dd0 00000000 00000000 00000000 00000000  ................
 0de0 00000000 00000000 00000000 00000000  ................
 0df0 00000000 00000000 00000000 00000000  ................
 0e00 00000000 00000000 00000000 00000000  ................
 0e10 00000000 00000000 00000000 00000000  ................
 0e20 00000000 00000000 00000000 00000000  ................
 0e30 00000000 00000000 00000000 00000000  ................
 0e40 00000000 00000000 00000000 00000000  ................
 0e50 00000000 00000000 00000000 00000000  ................
 0e60 00000000 00000000 00000000 00000000  ................
 0e70 00000000 00000000 00000000 00000000  ................
 0e80 00000000 00000000 00000000 00000000  ................
 0e90 00000000 00000000 00000000 00000000  ................
 0ea0 00000000 00000000 00000000 00000000  ................
 0eb0 00000000 00000000 00000000 00000000  ................
 0ec0 00000000 00000000 00000000 00000000  ................
 0ed0 00000000 00000000 00000000 00000000  ................
 0ee0 00000000 00000000 00000000 00000000  ................
 0ef0 00000000 00000000 00000000 00000000  ................
 0f00 00000000 00000000 00000000 00000000  ................
 0f10 00000000 00000000 00000000 00000000  ................
 0f20 00000000 00000000 00000000 00000000  ................
 0f30 00000000 00000000 00000000 00000000  ................
 0f40 00000000 00000000 00000000 00000000  ................
 0f50 00000000 00000000 00000000 00000000  ................
 0f60 00000000 00000000 00000000 00000000  ................
 0f70 00000000 00000000 00000000 00000000  ................
 0f80 00000000 00000000 00000000 00000000  ................
 0f90 00000000 00000000 00000000 00000000  ................
 0fa0 00000000 00000000 00000000 00000000  ................
 0fb0 00000000 00000000 00000000 00000000  ................
 0fc0 00000000 00000000 00000000 00000000  ................
 0fd0 00000000 00000000 00000000 00000000  ................
 0fe0 00000000 00000000 00000000 00000000  ................
 0ff0 00000000 00000000 00000000 00000000  ................
 1000 13000000 73002030 13000000 13000000  ....s. 0........
Contents of section .text1:
 10000 130101fd 23268102 13040103 232ea4fc  ....#&......#...
 10010 232cb4fc 232ac4fc 232604fe 6f008003  #,..#*..#&..o...
 10020 8327c4fe 93972700 0327c4fd 3307f700  .'....'..'..3...
 10030 8327c4fe 93972700 832684fd b387f600  .'....'..&......
 10040 03270700 23a0e700 8327c4fe 93871700  .'..#....'......
 10050 2326f4fe 0327c4fe 832744fd e342f7fc  #&...'...'D..B..
 10060 13000000 13000000 0324c102 13010103  .........$......
 10070 67800000 130101fe 232e1100 232c8100  g.......#...#,..
 10080 13040102 b7370050 13870700 b7070050  .....7.P.......P
 10090 93870700 b307f740 93d72740 9387f7ff  .......@..'@....
 100a0 2326f4fe 8327c4fe 13860700 b7070050  #&...'.........P
 100b0 93850700 b7074020 13858703 ef000f86  ......@ ........
 100c0 b7070072 13870701 b7070072 93870700  ...r.......r....
 100d0 b307f740 93d72740 9387f7ff 2326f4fe  ...@..'@....#&..
 100e0 8327c4fe 13860700 b7070072 93850700  .'.........r....
 100f0 b7374020 1385873f ef004f82 b7070070  .7@ ...?..O....p
 10100 1387072d b7070070 93870700 b307f740  ...-...p.......@
 10110 93d72740 9387f7ff 2326f4fe 8327c4fe  ..'@....#&...'..
 10120 13860700 b7070070 93850700 b7374020  .......p.....7@ 
 10130 13858703 eff09efe b7070071 1387070f  ...........q....
 10140 b7070071 93870700 b307f740 93d72740  ...q.......@..'@
 10150 9387f7ff 2326f4fe 8327c4fe 13860700  ....#&...'......
 10160 b7070071 93850700 b7374020 13858730  ...q.....7@ ...0
 10170 eff0defa b7f7fa05 938707d0 2324f4fe  ............#$..
 10180 b7070200 83a78702 032784fe 23a0e700  .........'..#...
 10190 b7070200 83a7c702 032784fe 13570701  .........'...W..
 101a0 23a0e700 93078000 2322f4fe 832744fe  #.......#"...'D.
 101b0 93971700 13e71700 b7070200 83a74702  ..............G.
 101c0 23a0e700 73005010 b7070072 13870702  #...s.P....r....
 101d0 b7070072 93870701 b307f740 93d72740  ...r.......@..'@
 101e0 9387f7ff 2326f4fe 8327c4fe 13860700  ....#&...'......
 101f0 b7070072 93850700 b7474020 13858782  ...r.....G@ ....
 10200 eff0def1 b7070070 1387c766 b7070070  .......p...f...p
 10210 9387072d b307f740 93d72740 9387f7ff  ...-...@..'@....
 10220 2326f4fe 8327c4fe 13860700 b7070070  #&...'.........p
 10230 93850700 b7374020 13858740 eff01eee  .....7@ ...@....
 10240 b7070071 13874717 b7070071 9387070f  ...q..G....q....
 10250 b307f740 93d72740 9387f7ff 2326f4fe  ...@..'@....#&..
 10260 8327c4fe 13860700 b7070071 93850700  .'.........q....
 10270 b7374020 1385477a eff05eea b7f7fb07  .7@ ..Gz..^.....
 10280 938707d0 2324f4fe b7070200 83a78702  ....#$..........
 10290 032784fe 23a0e700 b7070200 83a7c702  .'..#...........
 102a0 032784fe 13570701 23a0e700 93072000  .'...W..#..... .
 102b0 2322f4fe 832744fe 93971700 13e71702  #"...'D.........
 102c0 b7070200 83a74702 23a0e700 73005010  ......G.#...s.P.
 102d0 b7070072 13870703 b7070072 93870702  ...r.......r....
 102e0 b307f740 93d72740 9387f7ff 2326f4fe  ...@..'@....#&..
 102f0 8327c4fe 13860700 b7070072 93850700  .'.........r....
 10300 b7474020 1385879c eff05ee1 b7070070  .G@ ......^....p
 10310 1387c77a b7070070 9387c766 b307f740  ...z...p...f...@
 10320 93d72740 9387f7ff 2326f4fe 8327c4fe  ..'@....#&...'..
 10330 13860700 b7070070 93850700 b7474020  .......p.....G@ 
 10340 13858783 eff09edd b7070071 1387471c  ...........q..G.
 10350 b7070071 93874717 b307f740 93d72740  ...q..G....@..'@
 10360 9387f7ff 2326f4fe 8327c4fe 13860700  ....#&...'......
 10370 b7070071 93850700 b7474020 13858797  ...q.....G@ ....
 10380 eff0ded9 b7e7fb06 93870760 2324f4fe  ...........`#$..
 10390 b7070200 83a78702 032784fe 23a0e700  .........'..#...
 103a0 b7070200 83a7c702 032784fe 13570701  .........'...W..
 103b0 23a0e700 93072000 2322f4fe 832744fe  #..... .#"...'D.
 103c0 93971700 13e71700 b7070200 83a74702  ..............G.
 103d0 23a0e700 73005010 b7070072 13870704  #...s.P....r....
 103e0 b7070072 93870703 b307f740 93d72740  ...r.......@..'@
 103f0 9387f7ff 2326f4fe 8327c4fe 13860700  ....#&...'......
 10400 b7070072 93850700 b7474020 138587a2  ...r.....G@ ....
 10410 eff0ded0 93074000 2322f4fe 832744fe  ......@.#"...'D.
 10420 93971700 13e71702 b7070200 83a74702  ..............G.
 10430 23a0e700 73005010 b7370050 13870705  #...s.P..7.P....
 10440 b7370050 93870700 b307f740 93d72740  .7.P.......@..'@
 10450 9387f7ff 2326f4fe 8327c4fe 13860700  ....#&...'......
 10460 b7074020 93850700 b7070050 13850700  ..@ .......P....
 10470 eff0deca 93070000 13850700 8320c101  ............. ..
 10480 03248101 13010102 67800000           .$......g...    
Contents of section .sdata:
 20008 40000000 00000010 00000050 00000060  @..........P...`
 20018 00000070 00000071 00000072 00000080  ...p...q...r....
 20028 00000081 00000082                    ........        
Contents of section .in8_conv0_dat:
 50000000 20000000 20000000 20000000 20000000   ... ... ... ...
 50000010 20000000 1f000000 20000000 20000000   ....... ... ...
 50000020 1f000000 1f000000 1f000000 1f000000  ................
 50000030 11000000 ff000000 f6000000 f2000000  ................
 50000040 f3000000 fa000000 00000000 13000000  ................
 50000050 1f000000 1f000000 1f000000 20000000  ............ ...
 50000060 1f000000 1f000000 20000000 20000000  ........ ... ...
 50000070 20000000 20000000 20000000 20000000   ... ... ... ...
 50000080 20000000 20000000 20000000 20000000   ... ... ... ...
 50000090 20000000 20000000 20000000 1f000000   ... ... .......
 500000a0 1f000000 1e000000 06000000 f7000000  ................
 500000b0 f0000000 eb000000 ec000000 ed000000  ................
 500000c0 ee000000 ef000000 f2000000 f5000000  ................
 500000d0 00000000 18000000 1f000000 20000000  ............ ...
 500000e0 20000000 20000000 20000000 20000000   ... ... ... ...
 500000f0 20000000 20000000 20000000 20000000   ... ... ... ...
 50000100 20000000 20000000 20000000 20000000   ... ... ... ...
 50000110 20000000 1f000000 1f000000 1f000000   ...............
 50000120 08000000 f6000000 f1000000 ee000000  ................
 50000130 ea000000 e9000000 ea000000 ec000000  ................
 50000140 ea000000 ea000000 eb000000 ee000000  ................
 50000150 f1000000 f7000000 0b000000 1f000000  ................
 50000160 1f000000 20000000 20000000 20000000  .... ... ... ...
 50000170 20000000 20000000 20000000 20000000   ... ... ... ...
 50000180 20000000 20000000 20000000 20000000   ... ... ... ...
 50000190 20000000 1f000000 17000000 fc000000   ...............
 500001a0 f0000000 ee000000 ec000000 ea000000  ................
 500001b0 e8000000 e8000000 e8000000 e7000000  ................
 500001c0 e7000000 e8000000 e8000000 eb000000  ................
 500001d0 ec000000 ef000000 f4000000 03000000  ................
 500001e0 1e000000 1f000000 1f000000 1f000000  ................
 500001f0 20000000 20000000 20000000 20000000   ... ... ... ...
 50000200 20000000 20000000 20000000 20000000   ... ... ... ...
 50000210 20000000 14000000 f4000000 ef000000   ...............
 50000220 ed000000 ed000000 ea000000 e9000000  ................
 50000230 e7000000 e6000000 e7000000 e6000000  ................
 50000240 e6000000 e8000000 e8000000 e9000000  ................
 50000250 eb000000 ed000000 ee000000 f4000000  ................
 50000260 fe000000 1d000000 1f000000 1f000000  ................
 50000270 20000000 20000000 20000000 20000000   ... ... ... ...
 50000280 20000000 20000000 20000000 1f000000   ... ... .......
 50000290 12000000 f2000000 ee000000 ed000000  ................
 500002a0 ec000000 eb000000 e8000000 e8000000  ................
 500002b0 e9000000 e9000000 e8000000 e8000000  ................
 500002c0 e6000000 e7000000 e9000000 ea000000  ................
 500002d0 eb000000 ec000000 ea000000 ea000000  ................
 500002e0 f3000000 fd000000 1e000000 1f000000  ................
 500002f0 20000000 20000000 1f000000 20000000   ... ....... ...
 50000300 20000000 20000000 1f000000 16000000   ... ...........
 50000310 f5000000 ec000000 ed000000 ed000000  ................
 50000320 ea000000 e9000000 e6000000 e7000000  ................
 50000330 e8000000 e8000000 ea000000 eb000000  ................
 50000340 eb000000 e9000000 e9000000 e9000000  ................
 50000350 e8000000 ea000000 ea000000 eb000000  ................
 50000360 ee000000 f1000000 ff000000 1f000000  ................
 50000370 20000000 20000000 20000000 20000000   ... ... ... ...
 50000380 20000000 20000000 1f000000 f9000000   ... ...........
 50000390 ee000000 ea000000 ec000000 ec000000  ................
 500003a0 e8000000 e5000000 e4000000 ea000000  ................
 500003b0 e8000000 e9000000 ea000000 ec000000  ................
 500003c0 ec000000 e9000000 ea000000 e8000000  ................
 500003d0 e8000000 eb000000 eb000000 ea000000  ................
 500003e0 eb000000 ee000000 f3000000 08000000  ................
 500003f0 1f000000 20000000 20000000 20000000  .... ... ... ...
 50000400 1f000000 1f000000 01000000 f0000000  ................
 50000410 e9000000 eb000000 ec000000 ec000000  ................
 50000420 e7000000 e4000000 e4000000 e7000000  ................
 50000430 e7000000 e9000000 e7000000 e9000000  ................
 50000440 e9000000 e9000000 e9000000 ea000000  ................
 50000450 ea000000 eb000000 ea000000 e9000000  ................
 50000460 e9000000 ea000000 ee000000 f5000000  ................
 50000470 0a000000 1f000000 1f000000 20000000  ............ ...
 50000480 1f000000 1d000000 f2000000 ed000000  ................
 50000490 eb000000 e9000000 eb000000 e7000000  ................
 500004a0 e5000000 e5000000 e5000000 e4000000  ................
 500004b0 e9000000 ea000000 e7000000 e7000000  ................
 500004c0 e8000000 e9000000 ea000000 eb000000  ................
 500004d0 ec000000 eb000000 e9000000 eb000000  ................
 500004e0 ea000000 ea000000 ec000000 f1000000  ................
 500004f0 fa000000 1e000000 1f000000 20000000  ............ ...
 50000500 1f000000 01000000 ed000000 ef000000  ................
 50000510 e8000000 e9000000 ea000000 e9000000  ................
 50000520 e7000000 e9000000 ea000000 e6000000  ................
 50000530 e7000000 e9000000 e8000000 e9000000  ................
 50000540 ea000000 ea000000 ea000000 ea000000  ................
 50000550 eb000000 ea000000 ea000000 ec000000  ................
 50000560 ed000000 ea000000 eb000000 ef000000  ................
 50000570 f2000000 07000000 1f000000 20000000  ............ ...
 50000580 1f000000 f4000000 ee000000 ea000000  ................
 50000590 e6000000 eb000000 eb000000 e4000000  ................
 500005a0 e9000000 e9000000 e9000000 e8000000  ................
 500005b0 e7000000 e5000000 ea000000 eb000000  ................
 500005c0 eb000000 ec000000 ea000000 ea000000  ................
 500005d0 ea000000 ea000000 ea000000 ed000000  ................
 500005e0 ed000000 e8000000 ec000000 ee000000  ................
 500005f0 f1000000 f8000000 1c000000 20000000  ............ ...
 50000600 1f000000 f2000000 ee000000 e9000000  ................
 50000610 f0000000 ef000000 e4000000 e5000000  ................
 50000620 e5000000 e5000000 e5000000 eb000000  ................
 50000630 e9000000 e6000000 eb000000 eb000000  ................
 50000640 ec000000 ed000000 ec000000 eb000000  ................
 50000650 e9000000 e9000000 e9000000 eb000000  ................
 50000660 ed000000 ea000000 ea000000 ec000000  ................
 50000670 ef000000 f3000000 11000000 1f000000  ................
 50000680 1e000000 f2000000 ec000000 ed000000  ................
 50000690 e9000000 ea000000 e3000000 e5000000  ................
 500006a0 e6000000 e6000000 e8000000 ed000000  ................
 500006b0 ea000000 e8000000 e9000000 ec000000  ................
 500006c0 ec000000 ed000000 ec000000 eb000000  ................
 500006d0 e8000000 e9000000 ea000000 ea000000  ................
 500006e0 ec000000 ea000000 e9000000 ea000000  ................
 500006f0 eb000000 ef000000 fe000000 1f000000  ................
 50000700 1e000000 f2000000 eb000000 e7000000  ................
 50000710 e8000000 e6000000 e6000000 e8000000  ................
 50000720 e8000000 e7000000 e6000000 e5000000  ................
 50000730 e8000000 e9000000 e6000000 e9000000  ................
 50000740 eb000000 ee000000 f3000000 ee000000  ................
 50000750 eb000000 e9000000 e9000000 e9000000  ................
 50000760 e9000000 e9000000 e9000000 e8000000  ................
 50000770 ea000000 ee000000 f6000000 1f000000  ................
 50000780 1e000000 f1000000 ea000000 e4000000  ................
 50000790 e9000000 e8000000 e9000000 ea000000  ................
 500007a0 ea000000 e7000000 ea000000 e7000000  ................
 500007b0 e6000000 eb000000 e7000000 e7000000  ................
 500007c0 ea000000 f0000000 ee000000 eb000000  ................
 500007d0 ea000000 e7000000 e8000000 e8000000  ................
 500007e0 e8000000 e7000000 e8000000 e8000000  ................
 500007f0 e9000000 eb000000 f2000000 1f000000  ................
 50000800 1e000000 f2000000 e9000000 e7000000  ................
 50000810 e8000000 e9000000 ed000000 e9000000  ................
 50000820 e8000000 eb000000 e8000000 e8000000  ................
 50000830 e7000000 e9000000 e9000000 e5000000  ................
 50000840 e9000000 ea000000 e8000000 e8000000  ................
 50000850 e5000000 e6000000 e6000000 e7000000  ................
 50000860 e7000000 e6000000 e8000000 e8000000  ................
 50000870 e8000000 ea000000 f1000000 1f000000  ................
 50000880 1e000000 f1000000 ee000000 e8000000  ................
 50000890 e8000000 ea000000 ee000000 ef000000  ................
 500008a0 e5000000 ea000000 e7000000 e7000000  ................
 500008b0 e7000000 e8000000 ea000000 e9000000  ................
 500008c0 e8000000 e8000000 e8000000 e7000000  ................
 500008d0 e6000000 e5000000 e5000000 e6000000  ................
 500008e0 e5000000 e5000000 e8000000 e7000000  ................
 500008f0 e8000000 ea000000 f1000000 1f000000  ................
 50000900 1e000000 f1000000 ec000000 eb000000  ................
 50000910 e6000000 e7000000 ec000000 ea000000  ................
 50000920 eb000000 e8000000 e7000000 e8000000  ................
 50000930 e6000000 e7000000 eb000000 e7000000  ................
 50000940 e6000000 e6000000 e9000000 e8000000  ................
 50000950 e6000000 e5000000 e5000000 e6000000  ................
 50000960 e6000000 e5000000 e7000000 e8000000  ................
 50000970 e9000000 eb000000 f6000000 20000000  ............ ...
 50000980 1e000000 f1000000 ed000000 eb000000  ................
 50000990 e5000000 e6000000 e6000000 eb000000  ................
 500009a0 e9000000 e5000000 e7000000 e8000000  ................
 500009b0 e6000000 e8000000 ea000000 e7000000  ................
 500009c0 e7000000 e7000000 e6000000 e5000000  ................
 500009d0 e6000000 e6000000 e6000000 e6000000  ................
 500009e0 e5000000 e5000000 e6000000 e8000000  ................
 500009f0 e8000000 ea000000 00000000 20000000  ............ ...
 50000a00 1f000000 f8000000 ef000000 e6000000  ................
 50000a10 e8000000 e4000000 e4000000 e6000000  ................
 50000a20 e5000000 e4000000 e7000000 e6000000  ................
 50000a30 eb000000 ea000000 e8000000 e7000000  ................
 50000a40 e7000000 e7000000 e6000000 e6000000  ................
 50000a50 e7000000 e5000000 e6000000 e5000000  ................
 50000a60 e4000000 e4000000 e6000000 e7000000  ................
 50000a70 e8000000 ec000000 19000000 20000000  ............ ...
 50000a80 1f000000 0f000000 ee000000 e7000000  ................
 50000a90 e7000000 e8000000 e4000000 e6000000  ................
 50000aa0 e6000000 e6000000 e6000000 e6000000  ................
 50000ab0 e8000000 ea000000 e7000000 e6000000  ................
 50000ac0 e7000000 e8000000 e7000000 e6000000  ................
 50000ad0 e6000000 e6000000 e6000000 e5000000  ................
 50000ae0 e5000000 e5000000 e6000000 e6000000  ................
 50000af0 e6000000 ec000000 1f000000 20000000  ............ ...
 50000b00 1f000000 1b000000 ef000000 eb000000  ................
 50000b10 e8000000 e8000000 e7000000 e7000000  ................
 50000b20 e6000000 e5000000 e6000000 ea000000  ................
 50000b30 e4000000 e9000000 e6000000 e6000000  ................
 50000b40 e6000000 e6000000 e6000000 e6000000  ................
 50000b50 e5000000 e5000000 e6000000 e5000000  ................
 50000b60 e6000000 e5000000 e5000000 e6000000  ................
 50000b70 ea000000 fa000000 1f000000 20000000  ............ ...
 50000b80 1f000000 1f000000 f3000000 ec000000  ................
 50000b90 e7000000 e9000000 e5000000 e8000000  ................
 50000ba0 e5000000 e9000000 e9000000 e5000000  ................
 50000bb0 e7000000 e6000000 e7000000 e6000000  ................
 50000bc0 e6000000 e6000000 e5000000 e5000000  ................
 50000bd0 e4000000 e6000000 e6000000 e6000000  ................
 50000be0 e6000000 e5000000 e6000000 e7000000  ................
 50000bf0 ea000000 15000000 1f000000 20000000  ............ ...
 50000c00 1f000000 1f000000 02000000 ec000000  ................
 50000c10 e5000000 e5000000 e7000000 e7000000  ................
 50000c20 e7000000 e5000000 e6000000 e9000000  ................
 50000c30 e6000000 e5000000 e5000000 e6000000  ................
 50000c40 e7000000 e6000000 e6000000 e6000000  ................
 50000c50 e5000000 e5000000 e6000000 e5000000  ................
 50000c60 e5000000 e5000000 e6000000 e7000000  ................
 50000c70 f1000000 1e000000 1f000000 20000000  ............ ...
 50000c80 20000000 1f000000 1d000000 f0000000   ...............
 50000c90 e7000000 e8000000 e6000000 e5000000  ................
 50000ca0 e6000000 e7000000 e7000000 e5000000  ................
 50000cb0 e5000000 e5000000 e5000000 e4000000  ................
 50000cc0 e7000000 e8000000 e7000000 e7000000  ................
 50000cd0 e6000000 e6000000 e5000000 e6000000  ................
 50000ce0 e5000000 e6000000 e7000000 ea000000  ................
 50000cf0 08000000 1e000000 20000000 20000000  ........ ... ...
 50000d00 20000000 1f000000 1f000000 01000000   ...............
 50000d10 e7000000 e7000000 e8000000 e8000000  ................
 50000d20 e5000000 e5000000 e6000000 e5000000  ................
 50000d30 e5000000 e5000000 e5000000 e6000000  ................
 50000d40 e5000000 e6000000 e7000000 e7000000  ................
 50000d50 e6000000 e5000000 e6000000 e5000000  ................
 50000d60 e5000000 e6000000 e8000000 f4000000  ................
 50000d70 1f000000 1f000000 1f000000 20000000  ............ ...
 50000d80 20000000 20000000 1f000000 1e000000   ... ...........
 50000d90 f1000000 e6000000 e6000000 e7000000  ................
 50000da0 e9000000 e7000000 e7000000 e8000000  ................
 50000db0 e6000000 e5000000 e5000000 e6000000  ................
 50000dc0 e5000000 e6000000 e6000000 e5000000  ................
 50000dd0 e5000000 e6000000 e6000000 e6000000  ................
 50000de0 e6000000 e6000000 ee000000 1c000000  ................
 50000df0 1f000000 20000000 1f000000 20000000  .... ....... ...
 50000e00 20000000 20000000 1f000000 1f000000   ... ...........
 50000e10 1b000000 ec000000 e6000000 e5000000  ................
 50000e20 e7000000 e7000000 e7000000 e8000000  ................
 50000e30 e8000000 e6000000 e6000000 e6000000  ................
 50000e40 e6000000 e6000000 e6000000 e5000000  ................
 50000e50 e4000000 e5000000 e6000000 e6000000  ................
 50000e60 e5000000 ea000000 15000000 1f000000  ................
 50000e70 20000000 20000000 1f000000 20000000   ... ....... ...
 50000e80 20000000 20000000 20000000 1f000000   ... ... .......
 50000e90 1f000000 19000000 f2000000 e5000000  ................
 50000ea0 e5000000 e6000000 e6000000 e7000000  ................
 50000eb0 e6000000 e6000000 e5000000 e4000000  ................
 50000ec0 e5000000 e5000000 e6000000 e5000000  ................
 50000ed0 e4000000 e6000000 e6000000 e5000000  ................
 50000ee0 e9000000 07000000 1f000000 1f000000  ................
 50000ef0 20000000 20000000 20000000 20000000   ... ... ... ...
 50000f00 1f000000 20000000 20000000 1f000000  .... ... .......
 50000f10 1f000000 1f000000 1e000000 03000000  ................
 50000f20 ed000000 e6000000 e5000000 e5000000  ................
 50000f30 e6000000 e6000000 e5000000 e5000000  ................
 50000f40 e4000000 e5000000 e5000000 e4000000  ................
 50000f50 e5000000 e6000000 e5000000 ea000000  ................
 50000f60 15000000 1e000000 1f000000 1f000000  ................
 50000f70 1f000000 20000000 20000000 20000000  .... ... ... ...
 50000f80 20000000 20000000 20000000 20000000   ... ... ... ...
 50000f90 20000000 20000000 20000000 20000000   ... ... ... ...
 50000fa0 1e000000 06000000 e9000000 e4000000  ................
 50000fb0 e4000000 e5000000 e5000000 e5000000  ................
 50000fc0 e5000000 e5000000 e4000000 e4000000  ................
 50000fd0 e4000000 e6000000 fe000000 1e000000  ................
 50000fe0 1f000000 1f000000 20000000 20000000  ........ ... ...
 50000ff0 20000000 20000000 20000000 20000000   ... ... ... ...
 50001000 20000000 20000000 20000000 20000000   ... ... ... ...
 50001010 20000000 20000000 20000000 20000000   ... ... ... ...
 50001020 1f000000 1f000000 1f000000 1f000000  ................
 50001030 12000000 00000000 f8000000 f4000000  ................
 50001040 f5000000 fc000000 02000000 14000000  ................
 50001050 1f000000 1f000000 1f000000 1f000000  ................
 50001060 20000000 20000000 20000000 20000000   ... ... ... ...
 50001070 20000000 20000000 20000000 20000000   ... ... ... ...
 50001080 20000000 20000000 20000000 20000000   ... ... ... ...
 50001090 20000000 1f000000 20000000 20000000   ....... ... ...
 500010a0 1f000000 1f000000 06000000 f8000000  ................
 500010b0 f1000000 ed000000 ee000000 f0000000  ................
 500010c0 f1000000 f2000000 f4000000 f7000000  ................
 500010d0 00000000 19000000 1f000000 20000000  ............ ...
 500010e0 1f000000 1f000000 20000000 20000000  ........ ... ...
 500010f0 20000000 20000000 20000000 20000000   ... ... ... ...
 50001100 20000000 20000000 20000000 20000000   ... ... ... ...
 50001110 20000000 1f000000 1f000000 20000000   ........... ...
 50001120 08000000 f7000000 f2000000 ef000000  ................
 50001130 ec000000 eb000000 ec000000 ed000000  ................
 50001140 ec000000 ec000000 ed000000 f0000000  ................
 50001150 f3000000 f9000000 0d000000 1f000000  ................
 50001160 1f000000 1f000000 20000000 20000000  ........ ... ...
 50001170 20000000 20000000 20000000 20000000   ... ... ... ...
 50001180 20000000 20000000 20000000 20000000   ... ... ... ...
 50001190 20000000 20000000 18000000 fd000000   ... ...........
 500011a0 f2000000 f0000000 ee000000 ec000000  ................
 500011b0 ea000000 ea000000 ea000000 e9000000  ................
 500011c0 e8000000 e9000000 e9000000 ed000000  ................
 500011d0 ee000000 f2000000 f6000000 04000000  ................
 500011e0 1f000000 1f000000 1f000000 1f000000  ................
 500011f0 20000000 20000000 20000000 20000000   ... ... ... ...
 50001200 20000000 20000000 20000000 20000000   ... ... ... ...
 50001210 20000000 15000000 f6000000 f2000000   ...............
 50001220 f0000000 ef000000 ec000000 ea000000  ................
 50001230 e9000000 e8000000 e8000000 e9000000  ................
 50001240 e8000000 ea000000 e9000000 eb000000  ................
 50001250 ee000000 ef000000 f1000000 f7000000  ................
 50001260 ff000000 1e000000 1f000000 1f000000  ................
 50001270 20000000 20000000 20000000 20000000   ... ... ... ...
 50001280 20000000 20000000 20000000 1f000000   ... ... .......
 50001290 13000000 f4000000 f1000000 ef000000  ................
 500012a0 ed000000 ee000000 ea000000 e9000000  ................
 500012b0 e9000000 ea000000 e9000000 e9000000  ................
 500012c0 e8000000 eb000000 ed000000 ec000000  ................
 500012d0 ed000000 ef000000 ed000000 ec000000  ................
 500012e0 f5000000 ff000000 1f000000 20000000  ............ ...
 500012f0 1f000000 1f000000 20000000 20000000  ........ ... ...
 50001300 20000000 20000000 1f000000 17000000   ... ...........
 50001310 f7000000 ef000000 ef000000 ee000000  ................
 50001320 eb000000 eb000000 e7000000 e8000000  ................
 50001330 e9000000 e9000000 ec000000 ed000000  ................
 50001340 ed000000 ec000000 ec000000 eb000000  ................
 50001350 eb000000 ed000000 ed000000 ee000000  ................
 50001360 f0000000 f3000000 00000000 1f000000  ................
 50001370 20000000 20000000 20000000 20000000   ... ... ... ...
 50001380 20000000 20000000 1f000000 fb000000   ... ...........
 50001390 f1000000 ec000000 ee000000 ee000000  ................
 500013a0 e8000000 e6000000 e5000000 eb000000  ................
 500013b0 ea000000 eb000000 ec000000 f0000000  ................
 500013c0 ef000000 eb000000 ec000000 ea000000  ................
 500013d0 eb000000 ee000000 ef000000 ee000000  ................
 500013e0 ee000000 f0000000 f5000000 0a000000  ................
 500013f0 20000000 20000000 1f000000 20000000   ... ....... ...
 50001400 1f000000 1f000000 03000000 f2000000  ................
 50001410 ec000000 ed000000 ee000000 ee000000  ................
 50001420 e7000000 e5000000 e5000000 e8000000  ................
 50001430 e9000000 eb000000 e9000000 ec000000  ................
 50001440 ec000000 eb000000 eb000000 ed000000  ................
 50001450 ed000000 ee000000 ee000000 ed000000  ................
 50001460 ec000000 ec000000 f0000000 f7000000  ................
 50001470 0b000000 1f000000 1f000000 20000000  ............ ...
 50001480 1f000000 1e000000 f5000000 ef000000  ................
 50001490 ed000000 eb000000 ed000000 e9000000  ................
 500014a0 e6000000 e6000000 e5000000 e5000000  ................
 500014b0 eb000000 ec000000 e8000000 e8000000  ................
 500014c0 e9000000 eb000000 ec000000 ed000000  ................
 500014d0 ee000000 ed000000 ed000000 ee000000  ................
 500014e0 ed000000 ec000000 ee000000 f3000000  ................
 500014f0 fc000000 1f000000 1f000000 20000000  ............ ...
 50001500 1f000000 02000000 ef000000 f0000000  ................
 50001510 e9000000 eb000000 ec000000 eb000000  ................
 50001520 e9000000 eb000000 e9000000 e6000000  ................
 50001530 e8000000 ea000000 e8000000 ea000000  ................
 50001540 eb000000 eb000000 ec000000 ed000000  ................
 50001550 ed000000 ed000000 ed000000 ef000000  ................
 50001560 f0000000 ec000000 ee000000 f3000000  ................
 50001570 f7000000 0a000000 1f000000 20000000  ............ ...
 50001580 1f000000 f6000000 f0000000 eb000000  ................
 50001590 e8000000 ec000000 ec000000 e5000000  ................
 500015a0 ea000000 ea000000 eb000000 e9000000  ................
 500015b0 e7000000 e6000000 ec000000 ec000000  ................
 500015c0 ec000000 ed000000 ec000000 ed000000  ................
 500015d0 ec000000 ec000000 ed000000 f0000000  ................
 500015e0 f0000000 ec000000 ef000000 f1000000  ................
 500015f0 f4000000 fb000000 1d000000 20000000  ............ ...
 50001600 1f000000 f3000000 f0000000 eb000000  ................
 50001610 f2000000 f0000000 e4000000 e6000000  ................
 50001620 e6000000 e6000000 e9000000 ed000000  ................
 50001630 ea000000 e8000000 ec000000 ec000000  ................
 50001640 ed000000 ee000000 ee000000 ed000000  ................
 50001650 ec000000 eb000000 ec000000 ee000000  ................
 50001660 f1000000 ee000000 ed000000 ee000000  ................
 50001670 f0000000 f5000000 13000000 20000000  ............ ...
 50001680 1f000000 f3000000 ee000000 ee000000  ................
 50001690 eb000000 eb000000 e4000000 e6000000  ................
 500016a0 e7000000 e7000000 e9000000 ef000000  ................
 500016b0 ed000000 eb000000 e9000000 ed000000  ................
 500016c0 ed000000 ee000000 ed000000 ec000000  ................
 500016d0 ea000000 ea000000 ec000000 ed000000  ................
 500016e0 ef000000 ed000000 ec000000 ec000000  ................
 500016f0 ec000000 f1000000 00000000 20000000  ............ ...
 50001700 1f000000 f4000000 ed000000 e8000000  ................
 50001710 e9000000 e7000000 e7000000 e9000000  ................
 50001720 ea000000 e8000000 e7000000 e6000000  ................
 50001730 ea000000 eb000000 e7000000 ea000000  ................
 50001740 ec000000 ee000000 f3000000 ee000000  ................
 50001750 ec000000 ea000000 ea000000 eb000000  ................
 50001760 eb000000 eb000000 eb000000 eb000000  ................
 50001770 ec000000 ef000000 f8000000 1f000000  ................
 50001780 1e000000 f4000000 eb000000 e6000000  ................
 50001790 ea000000 ea000000 eb000000 ec000000  ................
 500017a0 ed000000 e9000000 ea000000 e7000000  ................
 500017b0 e7000000 eb000000 e8000000 e8000000  ................
 500017c0 eb000000 f0000000 ef000000 eb000000  ................
 500017d0 ea000000 e8000000 e8000000 e9000000  ................
 500017e0 e9000000 e9000000 ea000000 eb000000  ................
 500017f0 ec000000 ed000000 f4000000 1f000000  ................
 50001800 1e000000 f4000000 e9000000 e8000000  ................
 50001810 e9000000 ea000000 ee000000 ea000000  ................
 50001820 ea000000 ec000000 e9000000 e8000000  ................
 50001830 e7000000 ea000000 ea000000 e6000000  ................
 50001840 ea000000 eb000000 e9000000 e8000000  ................
 50001850 e6000000 e6000000 e7000000 e8000000  ................
 50001860 e8000000 e7000000 e9000000 ea000000  ................
 50001870 eb000000 ed000000 f3000000 1f000000  ................
 50001880 1e000000 f3000000 ee000000 e9000000  ................
 50001890 e9000000 ea000000 ee000000 f0000000  ................
 500018a0 e6000000 eb000000 e8000000 e7000000  ................
 500018b0 e8000000 ea000000 ec000000 ea000000  ................
 500018c0 e8000000 e8000000 e8000000 e8000000  ................
 500018d0 e7000000 e6000000 e6000000 e6000000  ................
 500018e0 e6000000 e6000000 e9000000 e9000000  ................
 500018f0 eb000000 ed000000 f3000000 20000000  ............ ...
 50001900 1e000000 f3000000 ec000000 ec000000  ................
 50001910 e7000000 e7000000 ed000000 ec000000  ................
 50001920 ed000000 ea000000 e8000000 e8000000  ................
 50001930 e7000000 e9000000 ed000000 e8000000  ................
 50001940 e7000000 e7000000 e9000000 e9000000  ................
 50001950 e7000000 e6000000 e6000000 e6000000  ................
 50001960 e6000000 e6000000 e8000000 ea000000  ................
 50001970 eb000000 ed000000 f8000000 20000000  ............ ...
 50001980 1f000000 f2000000 ed000000 ec000000  ................
 50001990 e6000000 e7000000 e8000000 ec000000  ................
 500019a0 ea000000 e6000000 e8000000 e7000000  ................
 500019b0 e7000000 ea000000 ec000000 e8000000  ................
 500019c0 e8000000 e8000000 e6000000 e6000000  ................
 500019d0 e7000000 e6000000 e6000000 e7000000  ................
 500019e0 e6000000 e6000000 e7000000 ea000000  ................
 500019f0 ea000000 ed000000 01000000 20000000  ............ ...
 50001a00 1f000000 f9000000 ef000000 e7000000  ................
 50001a10 e8000000 e5000000 e5000000 e7000000  ................
 50001a20 e6000000 e5000000 e6000000 e6000000  ................
 50001a30 ec000000 ec000000 ea000000 e8000000  ................
 50001a40 e8000000 e8000000 e7000000 e7000000  ................
 50001a50 e7000000 e6000000 e7000000 e6000000  ................
 50001a60 e5000000 e5000000 e7000000 e9000000  ................
 50001a70 ea000000 ed000000 1a000000 20000000  ............ ...
 50001a80 20000000 0f000000 ef000000 e8000000   ...............
 50001a90 e7000000 e9000000 e5000000 e7000000  ................
 50001aa0 e7000000 e6000000 e6000000 e7000000  ................
 50001ab0 ea000000 eb000000 e7000000 e6000000  ................
 50001ac0 e7000000 e8000000 e7000000 e6000000  ................
 50001ad0 e7000000 e6000000 e6000000 e6000000  ................
 50001ae0 e6000000 e6000000 e7000000 e7000000  ................
 50001af0 e9000000 ed000000 1f000000 20000000  ............ ...
 50001b00 1f000000 1c000000 f0000000 eb000000  ................
 50001b10 e9000000 e8000000 e8000000 e7000000  ................
 50001b20 e6000000 e5000000 e6000000 ea000000  ................
 50001b30 e6000000 ea000000 e6000000 e7000000  ................
 50001b40 e7000000 e6000000 e7000000 e7000000  ................
 50001b50 e5000000 e5000000 e7000000 e6000000  ................
 50001b60 e6000000 e6000000 e6000000 e8000000  ................
 50001b70 ec000000 fb000000 1f000000 20000000  ............ ...
 50001b80 1f000000 1f000000 f4000000 ed000000  ................
 50001b90 e8000000 ea000000 e5000000 e8000000  ................
 50001ba0 e6000000 ea000000 e9000000 e6000000  ................
 50001bb0 e8000000 e6000000 e7000000 e7000000  ................
 50001bc0 e6000000 e6000000 e5000000 e6000000  ................
 50001bd0 e5000000 e7000000 e7000000 e6000000  ................
 50001be0 e7000000 e6000000 e7000000 e9000000  ................
 50001bf0 ed000000 16000000 1f000000 20000000  ............ ...
 50001c00 1f000000 1f000000 03000000 ed000000  ................
 50001c10 e6000000 e6000000 e7000000 e8000000  ................
 50001c20 e8000000 e5000000 e6000000 e9000000  ................
 50001c30 e7000000 e5000000 e6000000 e6000000  ................
 50001c40 e7000000 e6000000 e6000000 e6000000  ................
 50001c50 e6000000 e6000000 e6000000 e6000000  ................
 50001c60 e6000000 e6000000 e7000000 ea000000  ................
 50001c70 f4000000 1f000000 1f000000 20000000  ............ ...
 50001c80 1f000000 20000000 1e000000 f0000000  .... ...........
 50001c90 e8000000 e9000000 e6000000 e5000000  ................
 50001ca0 e6000000 e7000000 e7000000 e5000000  ................
 50001cb0 e5000000 e5000000 e5000000 e5000000  ................
 50001cc0 e7000000 e8000000 e7000000 e7000000  ................
 50001cd0 e7000000 e7000000 e6000000 e6000000  ................
 50001ce0 e6000000 e7000000 e8000000 ec000000  ................
 50001cf0 0a000000 1f000000 1f000000 20000000  ............ ...
 50001d00 20000000 20000000 20000000 03000000   ... ... .......
 50001d10 e9000000 e8000000 e9000000 e9000000  ................
 50001d20 e5000000 e6000000 e7000000 e6000000  ................
 50001d30 e5000000 e5000000 e5000000 e6000000  ................
 50001d40 e6000000 e7000000 e8000000 e7000000  ................
 50001d50 e7000000 e6000000 e7000000 e7000000  ................
 50001d60 e6000000 e7000000 ea000000 f5000000  ................
 50001d70 1f000000 20000000 1f000000 20000000  .... ....... ...
 50001d80 20000000 20000000 1f000000 1f000000   ... ...........
 50001d90 f2000000 e6000000 e7000000 e8000000  ................
 50001da0 e9000000 e7000000 e7000000 e8000000  ................
 50001db0 e6000000 e5000000 e6000000 e6000000  ................
 50001dc0 e6000000 e6000000 e6000000 e6000000  ................
 50001dd0 e6000000 e7000000 e7000000 e8000000  ................
 50001de0 e8000000 e8000000 f0000000 1c000000  ................
 50001df0 1f000000 20000000 1f000000 20000000  .... ....... ...
 50001e00 20000000 20000000 1f000000 1f000000   ... ...........
 50001e10 1b000000 ed000000 e7000000 e6000000  ................
 50001e20 e8000000 e7000000 e7000000 e8000000  ................
 50001e30 e8000000 e6000000 e6000000 e6000000  ................
 50001e40 e6000000 e6000000 e6000000 e5000000  ................
 50001e50 e5000000 e6000000 e7000000 e8000000  ................
 50001e60 e7000000 ec000000 16000000 1f000000  ................
 50001e70 20000000 1f000000 20000000 20000000   ....... ... ...
 50001e80 20000000 20000000 20000000 1f000000   ... ... .......
 50001e90 1f000000 1a000000 f3000000 e7000000  ................
 50001ea0 e7000000 e6000000 e6000000 e7000000  ................
 50001eb0 e6000000 e6000000 e5000000 e5000000  ................
 50001ec0 e5000000 e5000000 e6000000 e6000000  ................
 50001ed0 e6000000 e7000000 e7000000 e7000000  ................
 50001ee0 ea000000 09000000 1f000000 1f000000  ................
 50001ef0 1f000000 20000000 20000000 20000000  .... ... ... ...
 50001f00 20000000 20000000 20000000 1f000000   ... ... .......
 50001f10 1f000000 1f000000 1f000000 05000000  ................
 50001f20 ef000000 e7000000 e6000000 e5000000  ................
 50001f30 e7000000 e6000000 e5000000 e5000000  ................
 50001f40 e5000000 e5000000 e5000000 e5000000  ................
 50001f50 e6000000 e7000000 e6000000 eb000000  ................
 50001f60 16000000 1f000000 1f000000 1f000000  ................
 50001f70 20000000 1f000000 20000000 20000000   ....... ... ...
 50001f80 20000000 20000000 20000000 20000000   ... ... ... ...
 50001f90 20000000 20000000 20000000 20000000   ... ... ... ...
 50001fa0 1f000000 08000000 ea000000 e4000000  ................
 50001fb0 e4000000 e5000000 e5000000 e5000000  ................
 50001fc0 e5000000 e5000000 e5000000 e5000000  ................
 50001fd0 e5000000 e8000000 ff000000 1e000000  ................
 50001fe0 1f000000 20000000 20000000 20000000  .... ... ... ...
 50001ff0 20000000 20000000 20000000 20000000   ... ... ... ...
 50002000 20000000 20000000 20000000 20000000   ... ... ... ...
 50002010 20000000 20000000 20000000 1f000000   ... ... .......
 50002020 1f000000 1f000000 1f000000 1f000000  ................
 50002030 14000000 02000000 fb000000 f8000000  ................
 50002040 f9000000 00000000 05000000 15000000  ................
 50002050 20000000 1f000000 1f000000 1f000000   ...............
 50002060 20000000 20000000 20000000 20000000   ... ... ... ...
 50002070 20000000 20000000 20000000 20000000   ... ... ... ...
 50002080 20000000 20000000 20000000 20000000   ... ... ... ...
 50002090 20000000 20000000 1f000000 1e000000   ... ...........
 500020a0 1f000000 1f000000 0a000000 fa000000  ................
 500020b0 f3000000 ef000000 f0000000 f1000000  ................
 500020c0 f3000000 f4000000 f7000000 fb000000  ................
 500020d0 04000000 1b000000 1f000000 1f000000  ................
 500020e0 1f000000 20000000 20000000 20000000  .... ... ... ...
 500020f0 20000000 20000000 20000000 20000000   ... ... ... ...
 50002100 20000000 20000000 20000000 20000000   ... ... ... ...
 50002110 20000000 1f000000 20000000 20000000   ....... ... ...
 50002120 0b000000 fa000000 f5000000 f1000000  ................
 50002130 ed000000 ec000000 ed000000 ef000000  ................
 50002140 ed000000 eb000000 ee000000 f3000000  ................
 50002150 f7000000 fd000000 0f000000 20000000  ............ ...
 50002160 1f000000 1f000000 20000000 20000000  ........ ... ...
 50002170 20000000 20000000 20000000 20000000   ... ... ... ...
 50002180 20000000 20000000 20000000 20000000   ... ... ... ...
 50002190 20000000 1f000000 19000000 00000000   ...............
 500021a0 f5000000 f1000000 ef000000 ed000000  ................
 500021b0 ea000000 ea000000 ec000000 eb000000  ................
 500021c0 e9000000 e9000000 e9000000 ed000000  ................
 500021d0 f0000000 f5000000 fb000000 08000000  ................
 500021e0 20000000 1f000000 1f000000 1f000000   ...............
 500021f0 20000000 20000000 20000000 20000000   ... ... ... ...
 50002200 20000000 20000000 20000000 20000000   ... ... ... ...
 50002210 20000000 16000000 f8000000 f4000000   ...............
 50002220 f2000000 f1000000 ee000000 ec000000  ................
 50002230 ea000000 e9000000 e9000000 ea000000  ................
 50002240 e9000000 ea000000 eb000000 ed000000  ................
 50002250 f0000000 f2000000 f5000000 fa000000  ................
 50002260 02000000 1f000000 1f000000 1f000000  ................
 50002270 20000000 20000000 20000000 20000000   ... ... ... ...
 50002280 1f000000 20000000 1f000000 1f000000  .... ...........
 50002290 15000000 f6000000 f3000000 f0000000  ................
 500022a0 ee000000 ee000000 eb000000 eb000000  ................
 500022b0 ec000000 ec000000 ec000000 eb000000  ................
 500022c0 ea000000 ed000000 f0000000 f1000000  ................
 500022d0 f1000000 f2000000 f0000000 f0000000  ................
 500022e0 f9000000 03000000 20000000 1f000000  ........ .......
 500022f0 20000000 20000000 1f000000 20000000   ... ....... ...
 50002300 20000000 1f000000 20000000 18000000   ....... .......
 50002310 f8000000 f0000000 f1000000 ef000000  ................
 50002320 ec000000 eb000000 ea000000 eb000000  ................
 50002330 ed000000 ed000000 ef000000 f0000000  ................
 50002340 f0000000 ef000000 f0000000 ef000000  ................
 50002350 ee000000 f0000000 f0000000 f1000000  ................
 50002360 f4000000 f7000000 03000000 20000000  ............ ...
 50002370 1f000000 1f000000 20000000 20000000  ........ ... ...
 50002380 20000000 1e000000 20000000 fe000000   ....... .......
 50002390 f2000000 ee000000 ef000000 ee000000  ................
 500023a0 e9000000 e7000000 e6000000 ee000000  ................
 500023b0 ed000000 ee000000 f0000000 f4000000  ................
 500023c0 f3000000 ef000000 ef000000 ed000000  ................
 500023d0 ee000000 f1000000 f2000000 f1000000  ................
 500023e0 f1000000 f3000000 fa000000 0d000000  ................
 500023f0 1f000000 1f000000 20000000 20000000  ........ ... ...
 50002400 1f000000 1f000000 05000000 f5000000  ................
 50002410 ec000000 ee000000 f0000000 ee000000  ................
 50002420 e8000000 e5000000 e5000000 e9000000  ................
 50002430 eb000000 ed000000 ec000000 f0000000  ................
 50002440 f0000000 ef000000 ef000000 f0000000  ................
 50002450 f0000000 f2000000 f2000000 f1000000  ................
 50002460 ef000000 ef000000 f5000000 fc000000  ................
 50002470 0d000000 20000000 1f000000 20000000  .... ....... ...
 50002480 1f000000 1f000000 f7000000 f1000000  ................
 50002490 ee000000 ed000000 ef000000 eb000000  ................
 500024a0 e7000000 e7000000 e5000000 e6000000  ................
 500024b0 ed000000 ee000000 eb000000 ec000000  ................
 500024c0 ed000000 ee000000 ef000000 f1000000  ................
 500024d0 f2000000 f2000000 f2000000 f3000000  ................
 500024e0 f1000000 f0000000 f2000000 f7000000  ................
 500024f0 00000000 1f000000 1e000000 20000000  ............ ...
 50002500 20000000 03000000 f0000000 f0000000   ...............
 50002510 eb000000 ec000000 ee000000 ee000000  ................
 50002520 eb000000 ed000000 ec000000 e7000000  ................
 50002530 e8000000 ec000000 ec000000 ed000000  ................
 50002540 ee000000 ef000000 f0000000 f1000000  ................
 50002550 f0000000 f1000000 f3000000 f6000000  ................
 50002560 f5000000 f2000000 f3000000 f7000000  ................
 50002570 fb000000 0d000000 20000000 20000000  ........ ... ...
 50002580 20000000 f7000000 f1000000 ec000000   ...............
 50002590 e9000000 ee000000 ef000000 e7000000  ................
 500025a0 ed000000 ed000000 ed000000 eb000000  ................
 500025b0 e9000000 e7000000 ee000000 ee000000  ................
 500025c0 ee000000 f0000000 f0000000 f0000000  ................
 500025d0 ef000000 f0000000 f3000000 f7000000  ................
 500025e0 f7000000 f1000000 f4000000 f5000000  ................
 500025f0 fa000000 fe000000 1e000000 20000000  ............ ...
 50002600 20000000 f5000000 f0000000 ec000000   ...............
 50002610 f3000000 f2000000 e5000000 e7000000  ................
 50002620 e7000000 e8000000 ea000000 f1000000  ................
 50002630 ee000000 e9000000 ef000000 ef000000  ................
 50002640 f1000000 f2000000 f1000000 f0000000  ................
 50002650 ee000000 ee000000 f1000000 f5000000  ................
 50002660 f7000000 f4000000 f1000000 f2000000  ................
 50002670 f5000000 f9000000 16000000 20000000  ............ ...
 50002680 1f000000 f6000000 ee000000 ef000000  ................
 50002690 ec000000 ec000000 e5000000 e6000000  ................
 500026a0 e8000000 e8000000 ec000000 f3000000  ................
 500026b0 f1000000 ed000000 ec000000 f1000000  ................
 500026c0 f1000000 f3000000 f1000000 f1000000  ................
 500026d0 ed000000 ee000000 f0000000 f2000000  ................
 500026e0 f5000000 f2000000 ef000000 ef000000  ................
 500026f0 ef000000 f4000000 03000000 20000000  ............ ...
 50002700 1f000000 f7000000 ec000000 ea000000  ................
 50002710 eb000000 e8000000 e8000000 ea000000  ................
 50002720 ea000000 e9000000 e8000000 e9000000  ................
 50002730 ee000000 ef000000 ea000000 ed000000  ................
 50002740 f0000000 f2000000 f7000000 f2000000  ................
 50002750 ef000000 ed000000 ed000000 ef000000  ................
 50002760 ef000000 ef000000 ee000000 ed000000  ................
 50002770 ee000000 f2000000 fc000000 20000000  ............ ...
 50002780 1f000000 f5000000 eb000000 e8000000  ................
 50002790 eb000000 e9000000 ee000000 f0000000  ................
 500027a0 ee000000 eb000000 ec000000 e9000000  ................
 500027b0 e9000000 f0000000 eb000000 eb000000  ................
 500027c0 ee000000 f4000000 f2000000 ee000000  ................
 500027d0 ed000000 eb000000 eb000000 ec000000  ................
 500027e0 ec000000 ec000000 ed000000 ed000000  ................
 500027f0 ed000000 f0000000 f8000000 20000000  ............ ...
 50002800 1f000000 f5000000 ea000000 ea000000  ................
 50002810 ea000000 eb000000 f1000000 ed000000  ................
 50002820 eb000000 ee000000 eb000000 e9000000  ................
 50002830 e9000000 ee000000 ed000000 e9000000  ................
 50002840 ed000000 ee000000 ec000000 eb000000  ................
 50002850 e9000000 e9000000 ea000000 eb000000  ................
 50002860 eb000000 ea000000 ec000000 ec000000  ................
 50002870 ec000000 ef000000 f7000000 20000000  ............ ...
 50002880 1f000000 f6000000 ef000000 ea000000  ................
 50002890 ea000000 ec000000 f0000000 f2000000  ................
 500028a0 e7000000 ed000000 eb000000 e9000000  ................
 500028b0 e9000000 ec000000 ef000000 ed000000  ................
 500028c0 eb000000 eb000000 eb000000 ea000000  ................
 500028d0 e9000000 e8000000 e8000000 e9000000  ................
 500028e0 e9000000 e9000000 ec000000 eb000000  ................
 500028f0 ec000000 ef000000 f7000000 20000000  ............ ...
 50002900 1f000000 f6000000 ee000000 ed000000  ................
 50002910 e8000000 ea000000 ef000000 ed000000  ................
 50002920 ee000000 ec000000 ea000000 ea000000  ................
 50002930 e9000000 ec000000 f0000000 eb000000  ................
 50002940 ea000000 ea000000 ec000000 eb000000  ................
 50002950 e9000000 e8000000 e8000000 e8000000  ................
 50002960 e8000000 e8000000 eb000000 ec000000  ................
 50002970 ec000000 f0000000 fd000000 20000000  ............ ...
 50002980 1f000000 f6000000 ef000000 ee000000  ................
 50002990 e7000000 e9000000 e8000000 ed000000  ................
 500029a0 ed000000 e7000000 e9000000 ea000000  ................
 500029b0 ea000000 ed000000 f0000000 eb000000  ................
 500029c0 eb000000 eb000000 e9000000 e9000000  ................
 500029d0 ea000000 e9000000 e8000000 e8000000  ................
 500029e0 e7000000 e8000000 e9000000 eb000000  ................
 500029f0 eb000000 ef000000 05000000 1f000000  ................
 50002a00 1f000000 fc000000 f2000000 e9000000  ................
 50002a10 ea000000 e6000000 e6000000 e8000000  ................
 50002a20 e7000000 e6000000 e8000000 e9000000  ................
 50002a30 f0000000 ef000000 ed000000 ea000000  ................
 50002a40 ea000000 eb000000 ea000000 ea000000  ................
 50002a50 ea000000 e9000000 e9000000 e7000000  ................
 50002a60 e6000000 e6000000 e8000000 ea000000  ................
 50002a70 eb000000 f0000000 1b000000 1f000000  ................
 50002a80 1f000000 12000000 f2000000 ea000000  ................
 50002a90 e9000000 ea000000 e6000000 e7000000  ................
 50002aa0 e8000000 e8000000 e8000000 e9000000  ................
 50002ab0 ed000000 ef000000 ea000000 e8000000  ................
 50002ac0 e9000000 eb000000 ea000000 e9000000  ................
 50002ad0 e9000000 e9000000 e8000000 e8000000  ................
 50002ae0 e7000000 e6000000 e8000000 e9000000  ................
 50002af0 eb000000 f0000000 1f000000 20000000  ............ ...
 50002b00 1f000000 1c000000 f2000000 ed000000  ................
 50002b10 ea000000 e9000000 e9000000 e8000000  ................
 50002b20 e7000000 e7000000 e9000000 ed000000  ................
 50002b30 e8000000 ec000000 e8000000 e8000000  ................
 50002b40 e8000000 e8000000 e9000000 e9000000  ................
 50002b50 e8000000 e8000000 e9000000 e8000000  ................
 50002b60 e9000000 e8000000 e8000000 ea000000  ................
 50002b70 ee000000 fe000000 1f000000 20000000  ............ ...
 50002b80 1e000000 20000000 f5000000 ef000000  .... ...........
 50002b90 e9000000 eb000000 e6000000 e9000000  ................
 50002ba0 e7000000 eb000000 eb000000 e8000000  ................
 50002bb0 e9000000 e8000000 e8000000 e8000000  ................
 50002bc0 e7000000 e8000000 e8000000 e7000000  ................
 50002bd0 e7000000 e9000000 e9000000 e9000000  ................
 50002be0 e9000000 e8000000 e9000000 eb000000  ................
 50002bf0 ef000000 17000000 20000000 20000000  ........ ... ...
 50002c00 1f000000 1f000000 04000000 ef000000  ................
 50002c10 e7000000 e7000000 e8000000 e9000000  ................
 50002c20 e9000000 e7000000 e8000000 ea000000  ................
 50002c30 e8000000 e6000000 e6000000 e8000000  ................
 50002c40 e9000000 e9000000 e9000000 e9000000  ................
 50002c50 e8000000 e8000000 e9000000 e8000000  ................
 50002c60 e8000000 e8000000 e9000000 ec000000  ................
 50002c70 f6000000 1f000000 1f000000 20000000  ............ ...
 50002c80 20000000 1f000000 1f000000 f3000000   ...............
 50002c90 e9000000 ea000000 e7000000 e6000000  ................
 50002ca0 e7000000 e8000000 e8000000 e6000000  ................
 50002cb0 e6000000 e5000000 e6000000 e6000000  ................
 50002cc0 e9000000 eb000000 ea000000 ea000000  ................
 50002cd0 e9000000 e9000000 e9000000 e8000000  ................
 50002ce0 e7000000 e9000000 e9000000 ee000000  ................
 50002cf0 0c000000 1f000000 1f000000 20000000  ............ ...
 50002d00 20000000 20000000 20000000 04000000   ... ... .......
 50002d10 ea000000 e9000000 ea000000 e9000000  ................
 50002d20 e6000000 e7000000 e8000000 e7000000  ................
 50002d30 e6000000 e6000000 e6000000 e8000000  ................
 50002d40 e8000000 ea000000 eb000000 ea000000  ................
 50002d50 ea000000 e9000000 e9000000 e8000000  ................
 50002d60 e8000000 e9000000 ed000000 f8000000  ................
 50002d70 20000000 1f000000 1f000000 20000000   ........... ...
 50002d80 20000000 20000000 20000000 1f000000   ... ... .......
 50002d90 f3000000 e8000000 e8000000 e9000000  ................
 50002da0 ea000000 e8000000 e8000000 e9000000  ................
 50002db0 e7000000 e6000000 e7000000 e7000000  ................
 50002dc0 e7000000 e8000000 e9000000 e8000000  ................
 50002dd0 e8000000 e9000000 e8000000 e9000000  ................
 50002de0 ea000000 ea000000 f2000000 1d000000  ................
 50002df0 1f000000 1f000000 1f000000 20000000  ............ ...
 50002e00 20000000 20000000 1f000000 1f000000   ... ...........
 50002e10 1c000000 ef000000 e9000000 e8000000  ................
 50002e20 e9000000 e8000000 e8000000 ea000000  ................
 50002e30 e9000000 e7000000 e7000000 e7000000  ................
 50002e40 e7000000 e7000000 e7000000 e7000000  ................
 50002e50 e7000000 e7000000 e8000000 e8000000  ................
 50002e60 e9000000 ef000000 17000000 1f000000  ................
 50002e70 1f000000 1f000000 20000000 20000000  ........ ... ...
 50002e80 20000000 20000000 20000000 1f000000   ... ... .......
 50002e90 1f000000 1a000000 f4000000 e9000000  ................
 50002ea0 e8000000 e8000000 e7000000 e9000000  ................
 50002eb0 e8000000 e7000000 e6000000 e6000000  ................
 50002ec0 e6000000 e6000000 e7000000 e6000000  ................
 50002ed0 e6000000 e8000000 e9000000 e9000000  ................
 50002ee0 ec000000 0b000000 20000000 1f000000  ........ .......
 50002ef0 1f000000 20000000 1f000000 20000000  .... ....... ...
 50002f00 20000000 20000000 1f000000 1f000000   ... ...........
 50002f10 1f000000 1f000000 20000000 07000000  ........ .......
 50002f20 f0000000 e9000000 e7000000 e7000000  ................
 50002f30 e8000000 e7000000 e6000000 e6000000  ................
 50002f40 e6000000 e5000000 e6000000 e6000000  ................
 50002f50 e6000000 e8000000 e9000000 ee000000  ................
 50002f60 18000000 20000000 1f000000 1f000000  .... ...........
 50002f70 20000000 20000000 1f000000 20000000   ... ....... ...
 50002f80 20000000 20000000 20000000 20000000   ... ... ... ...
 50002f90 20000000 20000000 20000000 20000000   ... ... ... ...
 50002fa0 1f000000 0a000000 eb000000 e5000000  ................
 50002fb0 e5000000 e6000000 e6000000 e6000000  ................
 50002fc0 e6000000 e5000000 e6000000 e6000000  ................
 50002fd0 e6000000 e9000000 01000000 1e000000  ................
 50002fe0 1f000000 20000000 20000000 20000000  .... ... ... ...
 50002ff0 20000000 20000000 20000000 20000000   ... ... ... ...
Contents of section .w2_conv0_dat:
 70000000 aaaa0200 f8ef0000 aaaa0200 ecbe0200  ................
 70000010 8aaa0200 382c0200 efff0300 a80a0300  ....8,..........
 70000020 9aaa0200 baa20200 fbff0300 baae0000  ................
 70000030 ffff0300 aaaa0200 b2aa0200 8aa90200  ................
 70000040 3fae0300 fcfc0300 aaaa0200 b2aa0200  ?...............
 70000050 ba220200 baaa0200 bc220300 fff00300  ."......."......
 70000060 ffff0300 aaaa0200 baa20200 b2a90200  ................
 70000070 bf8a0000 fffa0300 ffcb0300 3cf30300  ............<...
 70000080 baaa0200 aaaa0200 baaa0200 ba2a0000  .............*..
 70000090 fbfb0200 fb3b0000 b3af0200 acaa0200  .....;..........
 700000a0 bfaa0200 cfea0300 8aaa0200 bcae0000  ................
 700000b0 aaaa0200 bcaa0200 bf8e0200 beaa0200  ................
 700000c0 fffe0000 baaa0200 bcaa0200 fffb0300  ................
 700000d0 fe3f0200 3fff0300 a2ae0300 2f2b0000  .?..?......./+..
 700000e0 9aaa0200 82ae0200 beaa0200 bea20000  ................
 700000f0 ba2c0300 ffff0300 baa20200 afbe0000  .,..............
 70000100 6aaa0200 bcae0000 efff0300 aa2a0000  j............*..
 70000110 aaaa0000 3acb0300 ffff0300 baaa0200  ....:...........
 70000120 8aaa0200 3fae0200 fffa0300 9eaa0200  ....?...........
 70000130 1ffb0300 9aaa0200 efff0300 9aaa0000  ................
 70000140 ae0a0300 a5ae0200 8a8f0000 aaae0200  ................
 70000150 af0f0300 92ea0200 9aaa0200 aaae0200  ................
 70000160 8aae0200 bcae0200 aaaa0200 beae0200  ................
 70000170 fff30000 33eb0000 ffff0300 baaa0200  ....3...........
 70000180 fcff0300 b2ae0300 3fcf0300 f8fe0300  ........?.......
 70000190 38fe0300 ffff0300 a2aa0200 baaa0200  8...............
 700001a0 3c200200 feff0300 2a330300 aaaa0000  < ......*3......
 700001b0 ffff0300 aaaa0000 8aaa0200 ffff0300  ................
 700001c0 8aa80200 baa20200 aaae0200 baa20200  ................
 700001d0 30ac0300 a9aa0200 ff8f0300 ff3f0300  0............?..
 700001e0 effb0300 95aa0200 aeae0200 ebff0300  ................
 700001f0 a5aa0200 3a8f0200 cfff0300 aaa20200  ....:...........
 70000200 3eae0200 ffff0300 aaaa0200 b2aa0200  >...............
 70000210 aaaa0200 bca20200 fff80000 baa20200  ................
 70000220 ffff0300 baaa0200 efff0300 aaaa0200  ................
 70000230 beaa0200 82aa0200 3caa0000 fff80300  ........<.......
 70000240 ffbe0300 aa9a0200 bfae0300 aaaa0200  ................
 70000250 efbb0200 9aaa0200 aaaa0200 beaa0200  ................
 70000260 3a0a0200 a9aa0200 3c2c0300 ffff0300  :.......<,......
 70000270 a5ae0200 aaae0200 8aaf0200 baab0300  ................
 70000280 f3ff0300 beae0000 efff0300 aaaa0300  ................
 70000290 aa0a0300 b2ae0200 b2ae0200 3f0a0000  ............?...
 700002a0 f8fb0200 fffb0200 3afb0200 ffff0300  ........:.......
 700002b0 aaaa0200 8aa20200 ffff0300 3e2f0300  ............>/..
 700002c0 beac0200 feff0300 b9a20300 ba0c0300  ................
Contents of section .bias_conv0_dat:
 71000000 11010000 ecfdffff 80000000 f0010000  ................
 71000010 65feffff 04ffffff 0cffffff b9feffff  e...............
 71000020 c3feffff 7afeffff 58020000 37ffffff  ....z...X...7...
 71000030 9f020000 a3fdffff c4000000 7efeffff  ............~...
 71000040 51fdffff 42020000 35010000 e3fdffff  Q...B...5.......
 71000050 8f020000 aefdffff b6000000 8d020000  ................
 71000060 1efeffff 6f010000 4d000000 70010000  ....o...M...p...
 71000070 ec000000 c7fdffff b2fdffff ac020000  ................
 71000080 a9010000 77010000 d7fdffff 35010000  ....w.......5...
 71000090 e1ffffff 6bffffff 07feffff 28000000  ....k.......(...
 710000a0 90ffffff c7feffff 2bfeffff 38ffffff  ........+...8...
 710000b0 d4fdffff 69010000 11ffffff 66feffff  ....i.......f...
 710000c0 2dfeffff 3b020000 4bffffff bcffffff  -...;...K.......
 710000d0 26000000 74020000 c5000000 21feffff  &...t.......!...
 710000e0 20020000 74ffffff b9000000 f6ffffff   ...t...........
Contents of section .param_conv0_dat:
 72000000 20000000 03000000 3c000000 03000000   .......<.......
Contents of section .w2_conv1_dat:
 700002d0 acfb0300 baef0200 deb60300 fbf10200  ................
 700002e0 faff0300 fefe0100 ec0e0000 ef7b0300  .............{..
 700002f0 2eea0300 3eaf0000 bb020300 8fff0200  ....>...........
 70000300 efe20300 f20f0000 0e220000 2c220300  ........."..,"..
 70000310 80bb0200 a0aa0000 02aa0000 80c00200  ................
 70000320 280e0000 ebcd0100 ffae0200 bbfe0200  (...............
 70000330 eb2b0200 f9590300 b7ff0300 7e020000  .+...Y......~...
 70000340 dffc0300 77cf0100 eeb60200 f7e90200  ....w...........
 70000350 fefe0300 fffe0200 dd0e0000 abfc0200  ................
 70000360 3fff0100 affa0200 fbeb0200 faaa0300  ?...............
 70000370 fbff0200 ae0a0000 afff0200 77ff0200  ............w...
 70000380 dff60200 fbfd0200 faba0300 faff0100  ................
 70000390 9e0a0000 faab0300 eeba0200 beef0300  ................
 700003a0 3ecb0300 bf8a0200 c2a80300 ff0f0000  >...............
 700003b0 8eab0300 7aeb0200 debb0300 fafe0000  ....z...........
 700003c0 bfff0300 eee20200 ee0f0000 a3fe0200  ................
 700003d0 7bff0100 effa0200 fbfa0200 faaa0300  {...............
 700003e0 3bff0200 ae090000 feb30300 affb0200  ;...............
 700003f0 fe8c0200 fa2b0300 8ffa0300 ff980300  .....+..........
 70000400 ec0f0000 fb6b0300 ee8e0300 bbef0300  .....k..........
 70000410 afbf0300 afaa0200 a3ab0300 fb0f0000  ................
 70000420 ecab0300 8af30100 eeeb0200 3ee60300  ............>...
 70000430 bfff0000 efd20000 ec0e0000 abfe0200  ................
 70000440 7bff0200 2ffa0200 fbea0200 faaa0300  {.../...........
 70000450 f8ff0200 ae0a0000 9eff0300 7bf30200  ............{...
 70000460 ed7a0200 f8ea0200 b0fe0300 fa3d0200  .z...........=..
 70000470 2d020000 ee8e0300 0aae0300 ffe80300  -...............
 70000480 8f3e0300 fcff0200 eeff0300 ee0f0000  .>..............
 70000490 00000000 00000200 02200000 00020000  ......... ......
 700004a0 08800000 00000000 00030000 ae3b0300  .............;..
 700004b0 77f30000 deb40300 f8fd0200 bfff0300  w...............
 700004c0 feee0100 de0e0000 afff0300 77ff0200  ............w...
 700004d0 eeb60200 fbf90200 fabe0300 f2ee0100  ................
 700004e0 2e020000 9bfd0100 b3bf0300 bcb10100  ................
 700004f0 fbfc0100 f5a50300 b7ff0000 4d060000  ............M...
 70000500 deff0300 bbff0100 fd7a0100 f6d60200  .........z......
 70000510 7f3a0300 ffee0300 ed0e0000 efba0200  .:..............
 70000520 ffbc0300 bffe0200 3b3f0300 b2aa0200  ........;?......
 70000530 8bef0300 ba0b0000 aeff0300 bbfb0300  ................
 70000540 ed7a0000 fafe0300 7fff0300 fead0200  .z..............
 70000550 ff0f0000 bcab0300 f2e20300 cbdf0300  ................
 70000560 8fbe0000 fbff0200 ded30300 fb0f0000  ................
 70000570 b28b0300 eeea0300 ebef0300 aebe0300  ................
 70000580 afff0200 ee9b0200 eb0f0000 bd2b0300  .............+..
 70000590 eeeb0300 e96f0300 cabe0000 afff0300  .....o..........
 700005a0 eea90200 eb0f0000 ecfe0000 77ff0200  ............w...
 700005b0 feba0200 fbfd0200 faba0300 fbfe0200  ................
 700005c0 ae0e0000 acab0300 7aea0300 e0ab0300  ........z.......
 700005d0 fbee0300 3fff0200 eeee0100 ea0f0000  ....?...........
 700005e0 efbb0300 baf30200 efeb0200 f3ea0300  ................
 700005f0 ffff0300 efec0200 ee0f0000 fbb20200  ................
 70000600 8eae0200 bbef0300 afab0300 cc2a0200  .............*..
 70000610 a3ff0300 2b0e0000 fbfe0200 ffbe0300  ....+...........
 70000620 bfcf0300 afff0000 eaaa0200 fb3f0300  .............?..
 70000630 bb0b0000 eeff0300 bbfb0100 fd7a0200  .............z..
 70000640 f6da0300 bffe0300 ff2d0000 ee0f0000  .........-......
 70000650 aeff0300 77fb0300 dd740200 f6fd0200  ....w....t......
 70000660 7fff0300 fe2d0100 ee0d0000           .....-......    
Contents of section .bias_conv1_dat:
 710000f0 e1feffff 6b000000 d2ffffff 39010000  ....k.......9...
 71000100 9ffeffff 01000000 e2feffff 37000000  ............7...
 71000110 e6fdffff 2cffffff 38000000 5e010000  ....,...8...^...
 71000120 23ffffff cdfeffff fafeffff b4000000  #...............
 71000130 ecffffff 1effffff 4bfeffff c4ffffff  ........K.......
 71000140 0fffffff 2d010000 5fffffff c1000000  ....-..._.......
 71000150 40000000 53ffffff b9feffff a7feffff  @...S...........
 71000160 37ffffff 4b010000 3e010000 06ffffff  7...K...>.......
 71000170 09ffffff                             ....            
Contents of section .param_conv1_dat:
 72000010 20000000 3c000000 21000000 01000000   ...<...!.......
Contents of section .w2_conv2_dat:
 7000066c 4f8f0300 db2f0300 b79b0300 af0f0000  O..../..........
 7000067c 8deb0300 ea3b0100 6acd0200 af0a0000  .....;..j.......
 7000068c acea0200 6eaa0000 eeba0000 fa0a0000  ....n...........
 7000069c e7bf0200 97bf0300 ef960300 ea0a0000  ................
 700006ac a7bf0300 eb9f0300 ff6b0300 9e0f0000  .........k......
 700006bc 8b220200 0a2a0200 8a220200 83080000  ."...*..."......
 700006cc c7bf0200 6b2f0300 ff6b0300 d60f0000  ....k/...k......
 700006dc 4ee60200 ee3a0100 fa5a0100 bf0b0000  N....:...Z......
 700006ec b22a0200 abaa0200 aa020300 ae0a0000  .*..............
 700006fc cbbe0100 8b3b0300 eb8a0300 f20a0000  .....;..........
 7000070c cfaf0100 eb2f0200 bfa60300 ce0b0000  ...../..........
 7000071c bce20200 bc200200 aafa0200 aa090000  ..... ..........
 7000072c af970300 ea3e0300 fb6b0300 af0f0000  .....>...k......
 7000073c aaaa0200 822a0000 aa0a0200 8e0a0000  .....*..........
 7000074c b32a0300 ea3a0300 6aff0200 5f0f0000  .*...:..j..._...
 7000075c afef0200 de0f0200 f8570300 ee0b0000  .........W......
 7000076c f3ea0300 ba2e0200 ee3a0200 ea0e0000  .........:......
 7000077c 8bbb0300 db3f0300 fb5b0300 af0f0000  .....?...[......
 7000078c 81ea0300 f23a0200 6aff0200 5f070000  .....:..j..._...
 7000079c e67e0200 7bfb0200 ef960300 f60a0000  .~..{...........
Contents of section .bias_conv2_dat:
 71000174 58ffffff 4dffffff 51ffffff b2ffffff  X...M...Q.......
 71000184 08ffffff e2ffffff 40000000 16000000  ........@.......
 71000194 e4ffffff dfffffff 89ffffff 8fffffff  ................
 710001a4 87ffffff e0ffffff 1fffffff c0000000  ................
 710001b4 40000000 1cffffff 1bffffff 19000000  @...............
Contents of section .param_conv2_dat:
 72000020 20000000 21000000 14000000 01000000   ...!...........
Contents of section .out8_pool0_dat:
 50003000 22000000 00000000 23000000 33000000  ".......#...3...
 50003010 00000000 00000000 32000000 00000000  ........2.......
 50003020 00000000 7f000000 7f000000 03000000  ................
 50003030 00000000 00000000 00000000 7f000000  ................
 50003040 47000000 63000000 00000000 47000000  G...c.......G...
Contents of section .param_pool0_dat:
 72000030 20000000 14000000 14000000 20000000   ........... ...
Contents of section .comment:
 0000 4743433a 2028474e 55292031 312e312e  GCC: (GNU) 11.1.
 0010 3000                                 0.              
Contents of section .riscv.attributes:
 0000 411f0000 00726973 63760001 15000000  A....riscv......
 0010 04100572 76333269 32703000 08010a0b  ...rv32i2p0.....

Disassembly of section .text0:

00000000 <_start>:
       0:	00000093          	li	ra,0
       4:	00000113          	li	sp,0
       8:	00000193          	li	gp,0
       c:	00000213          	li	tp,0
      10:	00000293          	li	t0,0
      14:	00000313          	li	t1,0
      18:	00000393          	li	t2,0
      1c:	00000413          	li	s0,0
      20:	00000493          	li	s1,0
      24:	00000513          	li	a0,0
      28:	00000593          	li	a1,0
      2c:	00000613          	li	a2,0
      30:	00000693          	li	a3,0
      34:	00000713          	li	a4,0
      38:	00000793          	li	a5,0
      3c:	00000813          	li	a6,0
      40:	00000893          	li	a7,0
      44:	00000913          	li	s2,0
      48:	00000993          	li	s3,0
      4c:	00000a13          	li	s4,0
      50:	00000a93          	li	s5,0
      54:	00000b13          	li	s6,0
      58:	00000b93          	li	s7,0
      5c:	00000c13          	li	s8,0
      60:	00000c93          	li	s9,0
      64:	00000d13          	li	s10,0
      68:	00000d93          	li	s11,0
      6c:	00000e13          	li	t3,0
      70:	00000e93          	li	t4,0
      74:	00000f13          	li	t5,0
      78:	00000f93          	li	t6,0
      7c:	00020197          	auipc	gp,0x20
      80:	78c18193          	addi	gp,gp,1932 # 20808 <_gp>

00000084 <init_bss>:
      84:	00020517          	auipc	a0,0x20
      88:	fac50513          	addi	a0,a0,-84 # 20030 <__bss_end>
      8c:	00020597          	auipc	a1,0x20
      90:	fa058593          	addi	a1,a1,-96 # 2002c <epu_w8_u_addr>
      94:	00000613          	li	a2,0
      98:	070000ef          	jal	ra,108 <fill_block>

0000009c <init_sbss>:
      9c:	00020517          	auipc	a0,0x20
      a0:	f6450513          	addi	a0,a0,-156 # 20000 <copy_addr>
      a4:	00020597          	auipc	a1,0x20
      a8:	f6058593          	addi	a1,a1,-160 # 20004 <copy_count>
      ac:	00000613          	li	a2,0
      b0:	058000ef          	jal	ra,108 <fill_block>

000000b4 <write_stack_pattern>:
      b4:	00020517          	auipc	a0,0x20
      b8:	f7c50513          	addi	a0,a0,-132 # 20030 <__bss_end>
      bc:	00021597          	auipc	a1,0x21
      c0:	f7058593          	addi	a1,a1,-144 # 2102c <_gp+0x824>
      c4:	00000613          	li	a2,0
      c8:	040000ef          	jal	ra,108 <fill_block>

000000cc <init_stack>:
      cc:	00021117          	auipc	sp,0x21
      d0:	f6410113          	addi	sp,sp,-156 # 21030 <__stack>

000000d4 <write_test_pattern>:
      d4:	20400517          	auipc	a0,0x20400
      d8:	f2c50513          	addi	a0,a0,-212 # 20400000 <_test_start>
      dc:	20400597          	auipc	a1,0x20400
      e0:	f3058593          	addi	a1,a1,-208 # 2040000c <_test_start+0xc>
      e4:	00000613          	li	a2,0
      e8:	020000ef          	jal	ra,108 <fill_block>

000000ec <SystemInit>:
      ec:	0a0000ef          	jal	ra,18c <boot>
      f0:	7850f0ef          	jal	ra,10074 <main>

000000f4 <SystemExit>:
      f4:	00030297          	auipc	t0,0x30
      f8:	f0828293          	addi	t0,t0,-248 # 2fffc <_sim_end>
      fc:	fff00313          	li	t1,-1
     100:	0062a023          	sw	t1,0(t0)

00000104 <dead_loop>:
     104:	0000006f          	j	104 <dead_loop>

00000108 <fill_block>:
     108:	00a5e863          	bltu	a1,a0,118 <fb_end>
     10c:	00c52023          	sw	a2,0(a0)
     110:	00450513          	addi	a0,a0,4
     114:	ff5ff06f          	j	108 <fill_block>

00000118 <fb_end>:
     118:	00008067          	ret

0000011c <dma_move>:
     11c:	fd010113          	addi	sp,sp,-48
     120:	02812623          	sw	s0,44(sp)
     124:	03010413          	addi	s0,sp,48
     128:	fca42e23          	sw	a0,-36(s0)
     12c:	fcb42c23          	sw	a1,-40(s0)
     130:	fcc42a23          	sw	a2,-44(s0)
     134:	400007b7          	lui	a5,0x40000
     138:	fef42623          	sw	a5,-20(s0)
     13c:	fdc42703          	lw	a4,-36(s0)
     140:	fec42783          	lw	a5,-20(s0)
     144:	00e7a023          	sw	a4,0(a5) # 40000000 <__data_paddr_start+0x1fbfc5c8>
     148:	fec42783          	lw	a5,-20(s0)
     14c:	00478793          	addi	a5,a5,4
     150:	fd842703          	lw	a4,-40(s0)
     154:	00e7a023          	sw	a4,0(a5)
     158:	fec42783          	lw	a5,-20(s0)
     15c:	00878793          	addi	a5,a5,8
     160:	fd442703          	lw	a4,-44(s0)
     164:	00e7a023          	sw	a4,0(a5)
     168:	fec42783          	lw	a5,-20(s0)
     16c:	00c78793          	addi	a5,a5,12
     170:	00100713          	li	a4,1
     174:	00e7a023          	sw	a4,0(a5)
     178:	10500073          	wfi
     17c:	00000013          	nop
     180:	02c12403          	lw	s0,44(sp)
     184:	03010113          	addi	sp,sp,48
     188:	00008067          	ret

0000018c <boot>:
     18c:	fe010113          	addi	sp,sp,-32
     190:	00112e23          	sw	ra,28(sp)
     194:	00812c23          	sw	s0,24(sp)
     198:	02010413          	addi	s0,sp,32
     19c:	30046073          	csrsi	mstatus,8
     1a0:	00001fb7          	lui	t6,0x1
     1a4:	800f8f93          	addi	t6,t6,-2048 # 800 <_binary_W2_conv1_dat_size+0x464>
     1a8:	304fa073          	csrs	mie,t6
     1ac:	200007b7          	lui	a5,0x20000
     1b0:	48c78713          	addi	a4,a5,1164 # 2000048c <_dram_i_end>
     1b4:	200007b7          	lui	a5,0x20000
     1b8:	00078793          	mv	a5,a5
     1bc:	40f707b3          	sub	a5,a4,a5
     1c0:	4027d793          	srai	a5,a5,0x2
     1c4:	fef42623          	sw	a5,-20(s0)
     1c8:	fec42603          	lw	a2,-20(s0)
     1cc:	000107b7          	lui	a5,0x10
     1d0:	00078593          	mv	a1,a5
     1d4:	200007b7          	lui	a5,0x20000
     1d8:	00078513          	mv	a0,a5
     1dc:	f41ff0ef          	jal	ra,11c <dma_move>
     1e0:	000207b7          	lui	a5,0x20
     1e4:	03078713          	addi	a4,a5,48 # 20030 <__bss_end>
     1e8:	000207b7          	lui	a5,0x20
     1ec:	00878793          	addi	a5,a5,8 # 20008 <sensor_size>
     1f0:	40f707b3          	sub	a5,a4,a5
     1f4:	4027d793          	srai	a5,a5,0x2
     1f8:	fef42623          	sw	a5,-20(s0)
     1fc:	fec42603          	lw	a2,-20(s0)
     200:	000207b7          	lui	a5,0x20
     204:	00878593          	addi	a1,a5,8 # 20008 <sensor_size>
     208:	204007b7          	lui	a5,0x20400
     20c:	01078513          	addi	a0,a5,16 # 20400010 <__sdata_paddr_start>
     210:	f0dff0ef          	jal	ra,11c <dma_move>
     214:	000207b7          	lui	a5,0x20
     218:	03078713          	addi	a4,a5,48 # 20030 <__bss_end>
     21c:	000207b7          	lui	a5,0x20
     220:	03078793          	addi	a5,a5,48 # 20030 <__bss_end>
     224:	40f707b3          	sub	a5,a4,a5
     228:	4027d793          	srai	a5,a5,0x2
     22c:	fef42623          	sw	a5,-20(s0)
     230:	fec42603          	lw	a2,-20(s0)
     234:	000207b7          	lui	a5,0x20
     238:	03078593          	addi	a1,a5,48 # 20030 <__bss_end>
     23c:	204047b7          	lui	a5,0x20404
     240:	a3878513          	addi	a0,a5,-1480 # 20403a38 <__data_paddr_start>
     244:	ed9ff0ef          	jal	ra,11c <dma_move>
     248:	00000013          	nop
     24c:	01c12083          	lw	ra,28(sp)
     250:	01812403          	lw	s0,24(sp)
     254:	02010113          	addi	sp,sp,32
     258:	00008067          	ret
	...

00001000 <dmaisr_entry>:
    1000:	00000013          	nop
    1004:	30200073          	mret
    1008:	00000013          	nop
    100c:	00000013          	nop

Disassembly of section .text1:

00010000 <cpu_move>:
   10000:	fd010113          	addi	sp,sp,-48
   10004:	02812623          	sw	s0,44(sp)
   10008:	03010413          	addi	s0,sp,48
   1000c:	fca42e23          	sw	a0,-36(s0)
   10010:	fcb42c23          	sw	a1,-40(s0)
   10014:	fcc42a23          	sw	a2,-44(s0)
   10018:	fe042623          	sw	zero,-20(s0)
   1001c:	0380006f          	j	10054 <cpu_move+0x54>
   10020:	fec42783          	lw	a5,-20(s0)
   10024:	00279793          	slli	a5,a5,0x2
   10028:	fdc42703          	lw	a4,-36(s0)
   1002c:	00f70733          	add	a4,a4,a5
   10030:	fec42783          	lw	a5,-20(s0)
   10034:	00279793          	slli	a5,a5,0x2
   10038:	fd842683          	lw	a3,-40(s0)
   1003c:	00f687b3          	add	a5,a3,a5
   10040:	00072703          	lw	a4,0(a4)
   10044:	00e7a023          	sw	a4,0(a5)
   10048:	fec42783          	lw	a5,-20(s0)
   1004c:	00178793          	addi	a5,a5,1
   10050:	fef42623          	sw	a5,-20(s0)
   10054:	fec42703          	lw	a4,-20(s0)
   10058:	fd442783          	lw	a5,-44(s0)
   1005c:	fcf742e3          	blt	a4,a5,10020 <cpu_move+0x20>
   10060:	00000013          	nop
   10064:	00000013          	nop
   10068:	02c12403          	lw	s0,44(sp)
   1006c:	03010113          	addi	sp,sp,48
   10070:	00008067          	ret

00010074 <main>:
   10074:	fe010113          	addi	sp,sp,-32
   10078:	00112e23          	sw	ra,28(sp)
   1007c:	00812c23          	sw	s0,24(sp)
   10080:	02010413          	addi	s0,sp,32
   10084:	500037b7          	lui	a5,0x50003
   10088:	00078713          	mv	a4,a5
   1008c:	500007b7          	lui	a5,0x50000
   10090:	00078793          	mv	a5,a5
   10094:	40f707b3          	sub	a5,a4,a5
   10098:	4027d793          	srai	a5,a5,0x2
   1009c:	fff78793          	addi	a5,a5,-1 # 4fffffff <__data_paddr_start+0x2fbfc5c7>
   100a0:	fef42623          	sw	a5,-20(s0)
   100a4:	fec42783          	lw	a5,-20(s0)
   100a8:	00078613          	mv	a2,a5
   100ac:	500007b7          	lui	a5,0x50000
   100b0:	00078593          	mv	a1,a5
   100b4:	204007b7          	lui	a5,0x20400
   100b8:	03878513          	addi	a0,a5,56 # 20400038 <__in8_conv0_data_in_dram_start>
   100bc:	860f00ef          	jal	ra,11c <dma_move>
   100c0:	720007b7          	lui	a5,0x72000
   100c4:	01078713          	addi	a4,a5,16 # 72000010 <__param_conv0_end>
   100c8:	720007b7          	lui	a5,0x72000
   100cc:	00078793          	mv	a5,a5
   100d0:	40f707b3          	sub	a5,a4,a5
   100d4:	4027d793          	srai	a5,a5,0x2
   100d8:	fff78793          	addi	a5,a5,-1 # 71ffffff <__bias_conv2_end+0xfffe3b>
   100dc:	fef42623          	sw	a5,-20(s0)
   100e0:	fec42783          	lw	a5,-20(s0)
   100e4:	00078613          	mv	a2,a5
   100e8:	720007b7          	lui	a5,0x72000
   100ec:	00078593          	mv	a1,a5
   100f0:	204037b7          	lui	a5,0x20403
   100f4:	3f878513          	addi	a0,a5,1016 # 204033f8 <__param_conv0_data_in_dram_start>
   100f8:	824f00ef          	jal	ra,11c <dma_move>
   100fc:	700007b7          	lui	a5,0x70000
   10100:	2d078713          	addi	a4,a5,720 # 700002d0 <__w2_conv0_end>
   10104:	700007b7          	lui	a5,0x70000
   10108:	00078793          	mv	a5,a5
   1010c:	40f707b3          	sub	a5,a4,a5
   10110:	4027d793          	srai	a5,a5,0x2
   10114:	fff78793          	addi	a5,a5,-1 # 6fffffff <__out8_pool0_end+0x1fffcfaf>
   10118:	fef42623          	sw	a5,-20(s0)
   1011c:	fec42783          	lw	a5,-20(s0)
   10120:	00078613          	mv	a2,a5
   10124:	700007b7          	lui	a5,0x70000
   10128:	00078593          	mv	a1,a5
   1012c:	204037b7          	lui	a5,0x20403
   10130:	03878513          	addi	a0,a5,56 # 20403038 <__w2_conv0_data_in_dram_start>
   10134:	fe9ef0ef          	jal	ra,11c <dma_move>
   10138:	710007b7          	lui	a5,0x71000
   1013c:	0f078713          	addi	a4,a5,240 # 710000f0 <__bias_conv0_end>
   10140:	710007b7          	lui	a5,0x71000
   10144:	00078793          	mv	a5,a5
   10148:	40f707b3          	sub	a5,a4,a5
   1014c:	4027d793          	srai	a5,a5,0x2
   10150:	fff78793          	addi	a5,a5,-1 # 70ffffff <__w2_conv2_end+0xfff853>
   10154:	fef42623          	sw	a5,-20(s0)
   10158:	fec42783          	lw	a5,-20(s0)
   1015c:	00078613          	mv	a2,a5
   10160:	710007b7          	lui	a5,0x71000
   10164:	00078593          	mv	a1,a5
   10168:	204037b7          	lui	a5,0x20403
   1016c:	30878513          	addi	a0,a5,776 # 20403308 <__bias_conv0_data_in_dram_start>
   10170:	fadef0ef          	jal	ra,11c <dma_move>
   10174:	05faf7b7          	lui	a5,0x5faf
   10178:	d0078793          	addi	a5,a5,-768 # 5faed00 <_end+0x5f7ed00>
   1017c:	fef42423          	sw	a5,-24(s0)
   10180:	000207b7          	lui	a5,0x20
   10184:	0287a783          	lw	a5,40(a5) # 20028 <epu_w8_l_addr>
   10188:	fe842703          	lw	a4,-24(s0)
   1018c:	00e7a023          	sw	a4,0(a5)
   10190:	000207b7          	lui	a5,0x20
   10194:	02c7a783          	lw	a5,44(a5) # 2002c <epu_w8_u_addr>
   10198:	fe842703          	lw	a4,-24(s0)
   1019c:	01075713          	srli	a4,a4,0x10
   101a0:	00e7a023          	sw	a4,0(a5)
   101a4:	00800793          	li	a5,8
   101a8:	fef42223          	sw	a5,-28(s0)
   101ac:	fe442783          	lw	a5,-28(s0)
   101b0:	00179793          	slli	a5,a5,0x1
   101b4:	0017e713          	ori	a4,a5,1
   101b8:	000207b7          	lui	a5,0x20
   101bc:	0247a783          	lw	a5,36(a5) # 20024 <epu_ctrl_addr>
   101c0:	00e7a023          	sw	a4,0(a5)
   101c4:	10500073          	wfi
   101c8:	720007b7          	lui	a5,0x72000
   101cc:	02078713          	addi	a4,a5,32 # 72000020 <__param_conv1_end>
   101d0:	720007b7          	lui	a5,0x72000
   101d4:	01078793          	addi	a5,a5,16 # 72000010 <__param_conv0_end>
   101d8:	40f707b3          	sub	a5,a4,a5
   101dc:	4027d793          	srai	a5,a5,0x2
   101e0:	fff78793          	addi	a5,a5,-1
   101e4:	fef42623          	sw	a5,-20(s0)
   101e8:	fec42783          	lw	a5,-20(s0)
   101ec:	00078613          	mv	a2,a5
   101f0:	720007b7          	lui	a5,0x72000
   101f4:	00078593          	mv	a1,a5
   101f8:	204047b7          	lui	a5,0x20404
   101fc:	82878513          	addi	a0,a5,-2008 # 20403828 <__param_conv1_data_in_dram_start>
   10200:	f1def0ef          	jal	ra,11c <dma_move>
   10204:	700007b7          	lui	a5,0x70000
   10208:	66c78713          	addi	a4,a5,1644 # 7000066c <__w2_conv1_end>
   1020c:	700007b7          	lui	a5,0x70000
   10210:	2d078793          	addi	a5,a5,720 # 700002d0 <__w2_conv0_end>
   10214:	40f707b3          	sub	a5,a4,a5
   10218:	4027d793          	srai	a5,a5,0x2
   1021c:	fff78793          	addi	a5,a5,-1
   10220:	fef42623          	sw	a5,-20(s0)
   10224:	fec42783          	lw	a5,-20(s0)
   10228:	00078613          	mv	a2,a5
   1022c:	700007b7          	lui	a5,0x70000
   10230:	00078593          	mv	a1,a5
   10234:	204037b7          	lui	a5,0x20403
   10238:	40878513          	addi	a0,a5,1032 # 20403408 <__w2_conv1_data_in_dram_start>
   1023c:	ee1ef0ef          	jal	ra,11c <dma_move>
   10240:	710007b7          	lui	a5,0x71000
   10244:	17478713          	addi	a4,a5,372 # 71000174 <__bias_conv1_end>
   10248:	710007b7          	lui	a5,0x71000
   1024c:	0f078793          	addi	a5,a5,240 # 710000f0 <__bias_conv0_end>
   10250:	40f707b3          	sub	a5,a4,a5
   10254:	4027d793          	srai	a5,a5,0x2
   10258:	fff78793          	addi	a5,a5,-1
   1025c:	fef42623          	sw	a5,-20(s0)
   10260:	fec42783          	lw	a5,-20(s0)
   10264:	00078613          	mv	a2,a5
   10268:	710007b7          	lui	a5,0x71000
   1026c:	00078593          	mv	a1,a5
   10270:	204037b7          	lui	a5,0x20403
   10274:	7a478513          	addi	a0,a5,1956 # 204037a4 <__bias_conv1_data_in_dram_start>
   10278:	ea5ef0ef          	jal	ra,11c <dma_move>
   1027c:	07fbf7b7          	lui	a5,0x7fbf
   10280:	d0078793          	addi	a5,a5,-768 # 7fbed00 <_end+0x7f8ed00>
   10284:	fef42423          	sw	a5,-24(s0)
   10288:	000207b7          	lui	a5,0x20
   1028c:	0287a783          	lw	a5,40(a5) # 20028 <epu_w8_l_addr>
   10290:	fe842703          	lw	a4,-24(s0)
   10294:	00e7a023          	sw	a4,0(a5)
   10298:	000207b7          	lui	a5,0x20
   1029c:	02c7a783          	lw	a5,44(a5) # 2002c <epu_w8_u_addr>
   102a0:	fe842703          	lw	a4,-24(s0)
   102a4:	01075713          	srli	a4,a4,0x10
   102a8:	00e7a023          	sw	a4,0(a5)
   102ac:	00200793          	li	a5,2
   102b0:	fef42223          	sw	a5,-28(s0)
   102b4:	fe442783          	lw	a5,-28(s0)
   102b8:	00179793          	slli	a5,a5,0x1
   102bc:	0217e713          	ori	a4,a5,33
   102c0:	000207b7          	lui	a5,0x20
   102c4:	0247a783          	lw	a5,36(a5) # 20024 <epu_ctrl_addr>
   102c8:	00e7a023          	sw	a4,0(a5)
   102cc:	10500073          	wfi
   102d0:	720007b7          	lui	a5,0x72000
   102d4:	03078713          	addi	a4,a5,48 # 72000030 <__param_conv2_end>
   102d8:	720007b7          	lui	a5,0x72000
   102dc:	02078793          	addi	a5,a5,32 # 72000020 <__param_conv1_end>
   102e0:	40f707b3          	sub	a5,a4,a5
   102e4:	4027d793          	srai	a5,a5,0x2
   102e8:	fff78793          	addi	a5,a5,-1
   102ec:	fef42623          	sw	a5,-20(s0)
   102f0:	fec42783          	lw	a5,-20(s0)
   102f4:	00078613          	mv	a2,a5
   102f8:	720007b7          	lui	a5,0x72000
   102fc:	00078593          	mv	a1,a5
   10300:	204047b7          	lui	a5,0x20404
   10304:	9c878513          	addi	a0,a5,-1592 # 204039c8 <__param_conv2_data_in_dram_start>
   10308:	e15ef0ef          	jal	ra,11c <dma_move>
   1030c:	700007b7          	lui	a5,0x70000
   10310:	7ac78713          	addi	a4,a5,1964 # 700007ac <__w2_conv2_end>
   10314:	700007b7          	lui	a5,0x70000
   10318:	66c78793          	addi	a5,a5,1644 # 7000066c <__w2_conv1_end>
   1031c:	40f707b3          	sub	a5,a4,a5
   10320:	4027d793          	srai	a5,a5,0x2
   10324:	fff78793          	addi	a5,a5,-1
   10328:	fef42623          	sw	a5,-20(s0)
   1032c:	fec42783          	lw	a5,-20(s0)
   10330:	00078613          	mv	a2,a5
   10334:	700007b7          	lui	a5,0x70000
   10338:	00078593          	mv	a1,a5
   1033c:	204047b7          	lui	a5,0x20404
   10340:	83878513          	addi	a0,a5,-1992 # 20403838 <__w2_conv2_data_in_dram_start>
   10344:	dd9ef0ef          	jal	ra,11c <dma_move>
   10348:	710007b7          	lui	a5,0x71000
   1034c:	1c478713          	addi	a4,a5,452 # 710001c4 <__bias_conv2_end>
   10350:	710007b7          	lui	a5,0x71000
   10354:	17478793          	addi	a5,a5,372 # 71000174 <__bias_conv1_end>
   10358:	40f707b3          	sub	a5,a4,a5
   1035c:	4027d793          	srai	a5,a5,0x2
   10360:	fff78793          	addi	a5,a5,-1
   10364:	fef42623          	sw	a5,-20(s0)
   10368:	fec42783          	lw	a5,-20(s0)
   1036c:	00078613          	mv	a2,a5
   10370:	710007b7          	lui	a5,0x71000
   10374:	00078593          	mv	a1,a5
   10378:	204047b7          	lui	a5,0x20404
   1037c:	97878513          	addi	a0,a5,-1672 # 20403978 <__bias_conv2_data_in_dram_start>
   10380:	d9def0ef          	jal	ra,11c <dma_move>
   10384:	06fbe7b7          	lui	a5,0x6fbe
   10388:	60078793          	addi	a5,a5,1536 # 6fbe600 <_end+0x6f8e600>
   1038c:	fef42423          	sw	a5,-24(s0)
   10390:	000207b7          	lui	a5,0x20
   10394:	0287a783          	lw	a5,40(a5) # 20028 <epu_w8_l_addr>
   10398:	fe842703          	lw	a4,-24(s0)
   1039c:	00e7a023          	sw	a4,0(a5)
   103a0:	000207b7          	lui	a5,0x20
   103a4:	02c7a783          	lw	a5,44(a5) # 2002c <epu_w8_u_addr>
   103a8:	fe842703          	lw	a4,-24(s0)
   103ac:	01075713          	srli	a4,a4,0x10
   103b0:	00e7a023          	sw	a4,0(a5)
   103b4:	00200793          	li	a5,2
   103b8:	fef42223          	sw	a5,-28(s0)
   103bc:	fe442783          	lw	a5,-28(s0)
   103c0:	00179793          	slli	a5,a5,0x1
   103c4:	0017e713          	ori	a4,a5,1
   103c8:	000207b7          	lui	a5,0x20
   103cc:	0247a783          	lw	a5,36(a5) # 20024 <epu_ctrl_addr>
   103d0:	00e7a023          	sw	a4,0(a5)
   103d4:	10500073          	wfi
   103d8:	720007b7          	lui	a5,0x72000
   103dc:	04078713          	addi	a4,a5,64 # 72000040 <__param_pool0_end>
   103e0:	720007b7          	lui	a5,0x72000
   103e4:	03078793          	addi	a5,a5,48 # 72000030 <__param_conv2_end>
   103e8:	40f707b3          	sub	a5,a4,a5
   103ec:	4027d793          	srai	a5,a5,0x2
   103f0:	fff78793          	addi	a5,a5,-1
   103f4:	fef42623          	sw	a5,-20(s0)
   103f8:	fec42783          	lw	a5,-20(s0)
   103fc:	00078613          	mv	a2,a5
   10400:	720007b7          	lui	a5,0x72000
   10404:	00078593          	mv	a1,a5
   10408:	204047b7          	lui	a5,0x20404
   1040c:	a2878513          	addi	a0,a5,-1496 # 20403a28 <__param_pool0_data_in_dram_start>
   10410:	d0def0ef          	jal	ra,11c <dma_move>
   10414:	00400793          	li	a5,4
   10418:	fef42223          	sw	a5,-28(s0)
   1041c:	fe442783          	lw	a5,-28(s0)
   10420:	00179793          	slli	a5,a5,0x1
   10424:	0217e713          	ori	a4,a5,33
   10428:	000207b7          	lui	a5,0x20
   1042c:	0247a783          	lw	a5,36(a5) # 20024 <epu_ctrl_addr>
   10430:	00e7a023          	sw	a4,0(a5)
   10434:	10500073          	wfi
   10438:	500037b7          	lui	a5,0x50003
   1043c:	05078713          	addi	a4,a5,80 # 50003050 <__out8_pool0_end>
   10440:	500037b7          	lui	a5,0x50003
   10444:	00078793          	mv	a5,a5
   10448:	40f707b3          	sub	a5,a4,a5
   1044c:	4027d793          	srai	a5,a5,0x2
   10450:	fff78793          	addi	a5,a5,-1 # 50002fff <__in8_conv0_start+0x2fff>
   10454:	fef42623          	sw	a5,-20(s0)
   10458:	fec42783          	lw	a5,-20(s0)
   1045c:	00078613          	mv	a2,a5
   10460:	204007b7          	lui	a5,0x20400
   10464:	00078593          	mv	a1,a5
   10468:	500007b7          	lui	a5,0x50000
   1046c:	00078513          	mv	a0,a5
   10470:	cadef0ef          	jal	ra,11c <dma_move>
   10474:	00000793          	li	a5,0
   10478:	00078513          	mv	a0,a5
   1047c:	01c12083          	lw	ra,28(sp)
   10480:	01812403          	lw	s0,24(sp)
   10484:	02010113          	addi	sp,sp,32
   10488:	00008067          	ret
